

HI-TECH Software PIC18 LITE Macro Assembler V9.80 build 11162 
                                                                                               Sun Aug 25 00:21:49 2013

HI-TECH Software Omniscient Code Generator (Lite mode) build 11162
     1  0000                     opt subtitle "HI-TECH Software Omniscient Code Generator (Lite mode) build 11162"
     2                           
     3                           opt pagewidth 120
     4                           
     5                           	opt lm
     6                           
     7                           	processor	18F4550
     8  0000                     porta	equ	0F80h
     9  0000                     portb	equ	0F81h
    10  0000                     portc	equ	0F82h
    11  0000                     portd	equ	0F83h
    12  0000                     porte	equ	0F84h
    13  0000                     lata	equ	0F89h
    14  0000                     latb	equ	0F8Ah
    15  0000                     latc	equ	0F8Bh
    16  0000                     latd	equ	0F8Ch
    17  0000                     late	equ	0F8Dh
    18  0000                     trisa	equ	0F92h
    19  0000                     trisb	equ	0F93h
    20  0000                     trisc	equ	0F94h
    21  0000                     trisd	equ	0F95h
    22  0000                     trise	equ	0F96h
    23  0000                     pie1	equ	0F9Dh
    24  0000                     pir1	equ	0F9Eh
    25  0000                     ipr1	equ	0F9Fh
    26  0000                     pie2	equ	0FA0h
    27  0000                     pir2	equ	0FA1h
    28  0000                     ipr2	equ	0FA2h
    29  0000                     t3con	equ	0FB1h
    30  0000                     tmr3l	equ	0FB2h
    31  0000                     tmr3h	equ	0FB3h
    32  0000                     ccp1con	equ	0FBDh
    33  0000                     ccpr1l	equ	0FBEh
    34  0000                     ccpr1h	equ	0FBFh
    35  0000                     adcon1	equ	0FC1h
    36  0000                     adcon0	equ	0FC2h
    37  0000                     adresl	equ	0FC3h
    38  0000                     adresh	equ	0FC4h
    39  0000                     sspcon2	equ	0FC5h
    40  0000                     sspcon1	equ	0FC6h
    41  0000                     sspstat	equ	0FC7h
    42  0000                     sspadd	equ	0FC8h
    43  0000                     sspbuf	equ	0FC9h
    44  0000                     t2con	equ	0FCAh
    45  0000                     pr2	equ	0FCBh
    46  0000                     tmr2	equ	0FCCh
    47  0000                     t1con	equ	0FCDh
    48  0000                     tmr1l	equ	0FCEh
    49  0000                     tmr1h	equ	0FCFh
    50  0000                     rcon	equ	0FD0h
    51  0000                     wdtcon	equ	0FD1h
    52  0000                     lvdcon	equ	0FD2h
    53  0000                     osccon	equ	0FD3h
    54  0000                     t0con	equ	0FD5h
    55  0000                     tmr0l	equ	0FD6h
    56  0000                     tmr0h	equ	0FD7h
    57  0000                     status	equ	0FD8h
    58  0000                     fsr2	equ	0FD9h
    59  0000                     fsr2l	equ	0FD9h
    60  0000                     fsr2h	equ	0FDAh
    61  0000                     plusw2	equ	0FDBh
    62  0000                     preinc2	equ	0FDCh
    63  0000                     postdec2	equ	0FDDh
    64  0000                     postinc2	equ	0FDEh
    65  0000                     indf2	equ	0FDFh
    66  0000                     bsr	equ	0FE0h
    67  0000                     fsr1	equ	0FE1h
    68  0000                     fsr1l	equ	0FE1h
    69  0000                     fsr1h	equ	0FE2h
    70  0000                     plusw1	equ	0FE3h
    71  0000                     preinc1	equ	0FE4h
    72  0000                     postdec1	equ	0FE5h
    73  0000                     postinc1	equ	0FE6h
    74  0000                     indf1	equ	0FE7h
    75  0000                     wreg	equ	0FE8h
    76  0000                     fsr0	equ	0FE9h
    77  0000                     fsr0l	equ	0FE9h
    78  0000                     fsr0h	equ	0FEAh
    79  0000                     plusw0	equ	0FEBh
    80  0000                     preinc0	equ	0FECh
    81  0000                     postdec0	equ	0FEDh
    82  0000                     postinc0	equ	0FEEh
    83  0000                     indf0	equ	0FEFh
    84  0000                     intcon3	equ	0FF0h
    85  0000                     intcon2	equ	0FF1h
    86  0000                     intcon	equ	0FF2h
    87  0000                     prod	equ	0FF3h
    88  0000                     prodl	equ	0FF3h
    89  0000                     prodh	equ	0FF4h
    90  0000                     tablat	equ	0FF5h
    91  0000                     tblptr	equ	0FF6h
    92  0000                     tblptrl	equ	0FF6h
    93  0000                     tblptrh	equ	0FF7h
    94  0000                     tblptru	equ	0FF8h
    95  0000                     pcl	equ	0FF9h
    96  0000                     pclat	equ	0FFAh
    97  0000                     pclath	equ	0FFAh
    98  0000                     pclatu	equ	0FFBh
    99  0000                     stkptr	equ	0FFCh
   100  0000                     tosl	equ	0FFDh
   101  0000                     tosh	equ	0FFEh
   102  0000                     tosu	equ	0FFFh
   103                           skipnz macro
   104                           	btfsc	status,2
   105  0000                     	endm
   106                           	global	__ramtop
   107                           	global	__accesstop
   108                           # 19 "C:\Program Files (x86)\HI-TECH Software\PICC-18\9.80\include\pic18f4550.h"
   109  0000                     SPPDATA equ 0F62h ;# 
   110                           # 31 "C:\Program Files (x86)\HI-TECH Software\PICC-18\9.80\include\pic18f4550.h"
   111  0000                     SPPCFG equ 0F63h ;# 
   112                           # 55 "C:\Program Files (x86)\HI-TECH Software\PICC-18\9.80\include\pic18f4550.h"
   113  0000                     SPPEPS equ 0F64h ;# 
   114                           # 81 "C:\Program Files (x86)\HI-TECH Software\PICC-18\9.80\include\pic18f4550.h"
   115  0000                     SPPCON equ 0F65h ;# 
   116                           # 94 "C:\Program Files (x86)\HI-TECH Software\PICC-18\9.80\include\pic18f4550.h"
   117  0000                     UFRM equ 0F66h ;# 
   118                           # 106 "C:\Program Files (x86)\HI-TECH Software\PICC-18\9.80\include\pic18f4550.h"
   119  0000                     UFRML equ 0F66h ;# 
   120                           # 131 "C:\Program Files (x86)\HI-TECH Software\PICC-18\9.80\include\pic18f4550.h"
   121  0000                     UFRMH equ 0F67h ;# 
   122                           # 148 "C:\Program Files (x86)\HI-TECH Software\PICC-18\9.80\include\pic18f4550.h"
   123  0000                     UIR equ 0F68h ;# 
   124                           # 166 "C:\Program Files (x86)\HI-TECH Software\PICC-18\9.80\include\pic18f4550.h"
   125  0000                     UIE equ 0F69h ;# 
   126                           # 184 "C:\Program Files (x86)\HI-TECH Software\PICC-18\9.80\include\pic18f4550.h"
   127  0000                     UEIR equ 0F6Ah ;# 
   128                           # 202 "C:\Program Files (x86)\HI-TECH Software\PICC-18\9.80\include\pic18f4550.h"
   129  0000                     UEIE equ 0F6Bh ;# 
   130                           # 220 "C:\Program Files (x86)\HI-TECH Software\PICC-18\9.80\include\pic18f4550.h"
   131  0000                     USTAT equ 0F6Ch ;# 
   132                           # 242 "C:\Program Files (x86)\HI-TECH Software\PICC-18\9.80\include\pic18f4550.h"
   133  0000                     UCON equ 0F6Dh ;# 
   134                           # 260 "C:\Program Files (x86)\HI-TECH Software\PICC-18\9.80\include\pic18f4550.h"
   135  0000                     UADDR equ 0F6Eh ;# 
   136                           # 281 "C:\Program Files (x86)\HI-TECH Software\PICC-18\9.80\include\pic18f4550.h"
   137  0000                     UCFG equ 0F6Fh ;# 
   138                           # 310 "C:\Program Files (x86)\HI-TECH Software\PICC-18\9.80\include\pic18f4550.h"
   139  0000                     UEP0 equ 0F70h ;# 
   140                           # 364 "C:\Program Files (x86)\HI-TECH Software\PICC-18\9.80\include\pic18f4550.h"
   141  0000                     UEP1 equ 0F71h ;# 
   142                           # 418 "C:\Program Files (x86)\HI-TECH Software\PICC-18\9.80\include\pic18f4550.h"
   143  0000                     UEP2 equ 0F72h ;# 
   144                           # 472 "C:\Program Files (x86)\HI-TECH Software\PICC-18\9.80\include\pic18f4550.h"
   145  0000                     UEP3 equ 0F73h ;# 
   146                           # 526 "C:\Program Files (x86)\HI-TECH Software\PICC-18\9.80\include\pic18f4550.h"
   147  0000                     UEP4 equ 0F74h ;# 
   148                           # 580 "C:\Program Files (x86)\HI-TECH Software\PICC-18\9.80\include\pic18f4550.h"
   149  0000                     UEP5 equ 0F75h ;# 
   150                           # 634 "C:\Program Files (x86)\HI-TECH Software\PICC-18\9.80\include\pic18f4550.h"
   151  0000                     UEP6 equ 0F76h ;# 
   152                           # 688 "C:\Program Files (x86)\HI-TECH Software\PICC-18\9.80\include\pic18f4550.h"
   153  0000                     UEP7 equ 0F77h ;# 
   154                           # 742 "C:\Program Files (x86)\HI-TECH Software\PICC-18\9.80\include\pic18f4550.h"
   155  0000                     UEP8 equ 0F78h ;# 
   156                           # 777 "C:\Program Files (x86)\HI-TECH Software\PICC-18\9.80\include\pic18f4550.h"
   157  0000                     UEP9 equ 0F79h ;# 
   158                           # 812 "C:\Program Files (x86)\HI-TECH Software\PICC-18\9.80\include\pic18f4550.h"
   159  0000                     UEP10 equ 0F7Ah ;# 
   160                           # 847 "C:\Program Files (x86)\HI-TECH Software\PICC-18\9.80\include\pic18f4550.h"
   161  0000                     UEP11 equ 0F7Bh ;# 
   162                           # 882 "C:\Program Files (x86)\HI-TECH Software\PICC-18\9.80\include\pic18f4550.h"
   163  0000                     UEP12 equ 0F7Ch ;# 
   164                           # 917 "C:\Program Files (x86)\HI-TECH Software\PICC-18\9.80\include\pic18f4550.h"
   165  0000                     UEP13 equ 0F7Dh ;# 
   166                           # 952 "C:\Program Files (x86)\HI-TECH Software\PICC-18\9.80\include\pic18f4550.h"
   167  0000                     UEP14 equ 0F7Eh ;# 
   168                           # 987 "C:\Program Files (x86)\HI-TECH Software\PICC-18\9.80\include\pic18f4550.h"
   169  0000                     UEP15 equ 0F7Fh ;# 
   170                           # 1022 "C:\Program Files (x86)\HI-TECH Software\PICC-18\9.80\include\pic18f4550.h"
   171  0000                     PORTA equ 0F80h ;# 
   172                           # 1074 "C:\Program Files (x86)\HI-TECH Software\PICC-18\9.80\include\pic18f4550.h"
   173  0000                     PORTB equ 0F81h ;# 
   174                           # 1109 "C:\Program Files (x86)\HI-TECH Software\PICC-18\9.80\include\pic18f4550.h"
   175  0000                     PORTC equ 0F82h ;# 
   176                           # 1163 "C:\Program Files (x86)\HI-TECH Software\PICC-18\9.80\include\pic18f4550.h"
   177  0000                     PORTD equ 0F83h ;# 
   178                           # 1199 "C:\Program Files (x86)\HI-TECH Software\PICC-18\9.80\include\pic18f4550.h"
   179  0000                     PORTE equ 0F84h ;# 
   180                           # 1306 "C:\Program Files (x86)\HI-TECH Software\PICC-18\9.80\include\pic18f4550.h"
   181  0000                     LATA equ 0F89h ;# 
   182                           # 1362 "C:\Program Files (x86)\HI-TECH Software\PICC-18\9.80\include\pic18f4550.h"
   183  0000                     LATB equ 0F8Ah ;# 
   184                           # 1415 "C:\Program Files (x86)\HI-TECH Software\PICC-18\9.80\include\pic18f4550.h"
   185  0000                     LATC equ 0F8Bh ;# 
   186                           # 1466 "C:\Program Files (x86)\HI-TECH Software\PICC-18\9.80\include\pic18f4550.h"
   187  0000                     LATD equ 0F8Ch ;# 
   188                           # 1519 "C:\Program Files (x86)\HI-TECH Software\PICC-18\9.80\include\pic18f4550.h"
   189  0000                     LATE equ 0F8Dh ;# 
   190                           # 1567 "C:\Program Files (x86)\HI-TECH Software\PICC-18\9.80\include\pic18f4550.h"
   191  0000                     TRISA equ 0F92h ;# 
   192                           # 1572 "C:\Program Files (x86)\HI-TECH Software\PICC-18\9.80\include\pic18f4550.h"
   193  0000                     DDRA equ 0F92h ;# 
   194                           # 1626 "C:\Program Files (x86)\HI-TECH Software\PICC-18\9.80\include\pic18f4550.h"
   195  0000                     TRISB equ 0F93h ;# 
   196                           # 1631 "C:\Program Files (x86)\HI-TECH Software\PICC-18\9.80\include\pic18f4550.h"
   197  0000                     DDRB equ 0F93h ;# 
   198                           # 1689 "C:\Program Files (x86)\HI-TECH Software\PICC-18\9.80\include\pic18f4550.h"
   199  0000                     TRISC equ 0F94h ;# 
   200                           # 1694 "C:\Program Files (x86)\HI-TECH Software\PICC-18\9.80\include\pic18f4550.h"
   201  0000                     DDRC equ 0F94h ;# 
   202                           # 1752 "C:\Program Files (x86)\HI-TECH Software\PICC-18\9.80\include\pic18f4550.h"
   203  0000                     TRISD equ 0F95h ;# 
   204                           # 1757 "C:\Program Files (x86)\HI-TECH Software\PICC-18\9.80\include\pic18f4550.h"
   205  0000                     DDRD equ 0F95h ;# 
   206                           # 1815 "C:\Program Files (x86)\HI-TECH Software\PICC-18\9.80\include\pic18f4550.h"
   207  0000                     TRISE equ 0F96h ;# 
   208                           # 1820 "C:\Program Files (x86)\HI-TECH Software\PICC-18\9.80\include\pic18f4550.h"
   209  0000                     DDRE equ 0F96h ;# 
   210                           # 1858 "C:\Program Files (x86)\HI-TECH Software\PICC-18\9.80\include\pic18f4550.h"
   211  0000                     OSCTUNE equ 0F9Bh ;# 
   212                           # 1879 "C:\Program Files (x86)\HI-TECH Software\PICC-18\9.80\include\pic18f4550.h"
   213  0000                     PIE1 equ 0F9Dh ;# 
   214                           # 1910 "C:\Program Files (x86)\HI-TECH Software\PICC-18\9.80\include\pic18f4550.h"
   215  0000                     PIR1 equ 0F9Eh ;# 
   216                           # 1941 "C:\Program Files (x86)\HI-TECH Software\PICC-18\9.80\include\pic18f4550.h"
   217  0000                     IPR1 equ 0F9Fh ;# 
   218                           # 1972 "C:\Program Files (x86)\HI-TECH Software\PICC-18\9.80\include\pic18f4550.h"
   219  0000                     PIE2 equ 0FA0h ;# 
   220                           # 1995 "C:\Program Files (x86)\HI-TECH Software\PICC-18\9.80\include\pic18f4550.h"
   221  0000                     PIR2 equ 0FA1h ;# 
   222                           # 2018 "C:\Program Files (x86)\HI-TECH Software\PICC-18\9.80\include\pic18f4550.h"
   223  0000                     IPR2 equ 0FA2h ;# 
   224                           # 2041 "C:\Program Files (x86)\HI-TECH Software\PICC-18\9.80\include\pic18f4550.h"
   225  0000                     EECON1 equ 0FA6h ;# 
   226                           # 2064 "C:\Program Files (x86)\HI-TECH Software\PICC-18\9.80\include\pic18f4550.h"
   227  0000                     EECON2 equ 0FA7h ;# 
   228                           # 2076 "C:\Program Files (x86)\HI-TECH Software\PICC-18\9.80\include\pic18f4550.h"
   229  0000                     EEDATA equ 0FA8h ;# 
   230                           # 2088 "C:\Program Files (x86)\HI-TECH Software\PICC-18\9.80\include\pic18f4550.h"
   231  0000                     EEADR equ 0FA9h ;# 
   232                           # 2100 "C:\Program Files (x86)\HI-TECH Software\PICC-18\9.80\include\pic18f4550.h"
   233  0000                     RCSTA equ 0FABh ;# 
   234                           # 2105 "C:\Program Files (x86)\HI-TECH Software\PICC-18\9.80\include\pic18f4550.h"
   235  0000                     RCSTA1 equ 0FABh ;# 
   236                           # 2153 "C:\Program Files (x86)\HI-TECH Software\PICC-18\9.80\include\pic18f4550.h"
   237  0000                     TXSTA equ 0FACh ;# 
   238                           # 2158 "C:\Program Files (x86)\HI-TECH Software\PICC-18\9.80\include\pic18f4550.h"
   239  0000                     TXSTA1 equ 0FACh ;# 
   240                           # 2252 "C:\Program Files (x86)\HI-TECH Software\PICC-18\9.80\include\pic18f4550.h"
   241  0000                     TXREG equ 0FADh ;# 
   242                           # 2257 "C:\Program Files (x86)\HI-TECH Software\PICC-18\9.80\include\pic18f4550.h"
   243  0000                     TXREG1 equ 0FADh ;# 
   244                           # 2275 "C:\Program Files (x86)\HI-TECH Software\PICC-18\9.80\include\pic18f4550.h"
   245  0000                     RCREG equ 0FAEh ;# 
   246                           # 2280 "C:\Program Files (x86)\HI-TECH Software\PICC-18\9.80\include\pic18f4550.h"
   247  0000                     RCREG1 equ 0FAEh ;# 
   248                           # 2298 "C:\Program Files (x86)\HI-TECH Software\PICC-18\9.80\include\pic18f4550.h"
   249  0000                     SPBRG equ 0FAFh ;# 
   250                           # 2303 "C:\Program Files (x86)\HI-TECH Software\PICC-18\9.80\include\pic18f4550.h"
   251  0000                     SPBRG1 equ 0FAFh ;# 
   252                           # 2321 "C:\Program Files (x86)\HI-TECH Software\PICC-18\9.80\include\pic18f4550.h"
   253  0000                     SPBRGH equ 0FB0h ;# 
   254                           # 2333 "C:\Program Files (x86)\HI-TECH Software\PICC-18\9.80\include\pic18f4550.h"
   255  0000                     T3CON equ 0FB1h ;# 
   256                           # 2378 "C:\Program Files (x86)\HI-TECH Software\PICC-18\9.80\include\pic18f4550.h"
   257  0000                     TMR3 equ 0FB2h ;# 
   258                           # 2390 "C:\Program Files (x86)\HI-TECH Software\PICC-18\9.80\include\pic18f4550.h"
   259  0000                     TMR3L equ 0FB2h ;# 
   260                           # 2402 "C:\Program Files (x86)\HI-TECH Software\PICC-18\9.80\include\pic18f4550.h"
   261  0000                     TMR3H equ 0FB3h ;# 
   262                           # 2414 "C:\Program Files (x86)\HI-TECH Software\PICC-18\9.80\include\pic18f4550.h"
   263  0000                     CMCON equ 0FB4h ;# 
   264                           # 2447 "C:\Program Files (x86)\HI-TECH Software\PICC-18\9.80\include\pic18f4550.h"
   265  0000                     CVRCON equ 0FB5h ;# 
   266                           # 2474 "C:\Program Files (x86)\HI-TECH Software\PICC-18\9.80\include\pic18f4550.h"
   267  0000                     ECCP1AS equ 0FB6h ;# 
   268                           # 2479 "C:\Program Files (x86)\HI-TECH Software\PICC-18\9.80\include\pic18f4550.h"
   269  0000                     CCP1AS equ 0FB6h ;# 
   270                           # 2521 "C:\Program Files (x86)\HI-TECH Software\PICC-18\9.80\include\pic18f4550.h"
   271  0000                     ECCP1DEL equ 0FB7h ;# 
   272                           # 2526 "C:\Program Files (x86)\HI-TECH Software\PICC-18\9.80\include\pic18f4550.h"
   273  0000                     CCP1DEL equ 0FB7h ;# 
   274                           # 2564 "C:\Program Files (x86)\HI-TECH Software\PICC-18\9.80\include\pic18f4550.h"
   275  0000                     BAUDCON equ 0FB8h ;# 
   276                           # 2569 "C:\Program Files (x86)\HI-TECH Software\PICC-18\9.80\include\pic18f4550.h"
   277  0000                     BAUDCTL equ 0FB8h ;# 
   278                           # 2629 "C:\Program Files (x86)\HI-TECH Software\PICC-18\9.80\include\pic18f4550.h"
   279  0000                     CCP2CON equ 0FBAh ;# 
   280                           # 2650 "C:\Program Files (x86)\HI-TECH Software\PICC-18\9.80\include\pic18f4550.h"
   281  0000                     CCPR2 equ 0FBBh ;# 
   282                           # 2662 "C:\Program Files (x86)\HI-TECH Software\PICC-18\9.80\include\pic18f4550.h"
   283  0000                     CCPR2L equ 0FBBh ;# 
   284                           # 2674 "C:\Program Files (x86)\HI-TECH Software\PICC-18\9.80\include\pic18f4550.h"
   285  0000                     CCPR2H equ 0FBCh ;# 
   286                           # 2686 "C:\Program Files (x86)\HI-TECH Software\PICC-18\9.80\include\pic18f4550.h"
   287  0000                     CCP1CON equ 0FBDh ;# 
   288                           # 2691 "C:\Program Files (x86)\HI-TECH Software\PICC-18\9.80\include\pic18f4550.h"
   289  0000                     ECCP1CON equ 0FBDh ;# 
   290                           # 2733 "C:\Program Files (x86)\HI-TECH Software\PICC-18\9.80\include\pic18f4550.h"
   291  0000                     CCPR1 equ 0FBEh ;# 
   292                           # 2745 "C:\Program Files (x86)\HI-TECH Software\PICC-18\9.80\include\pic18f4550.h"
   293  0000                     CCPR1L equ 0FBEh ;# 
   294                           # 2757 "C:\Program Files (x86)\HI-TECH Software\PICC-18\9.80\include\pic18f4550.h"
   295  0000                     CCPR1H equ 0FBFh ;# 
   296                           # 2769 "C:\Program Files (x86)\HI-TECH Software\PICC-18\9.80\include\pic18f4550.h"
   297  0000                     ADCON2 equ 0FC0h ;# 
   298                           # 2792 "C:\Program Files (x86)\HI-TECH Software\PICC-18\9.80\include\pic18f4550.h"
   299  0000                     ADCON1 equ 0FC1h ;# 
   300                           # 2825 "C:\Program Files (x86)\HI-TECH Software\PICC-18\9.80\include\pic18f4550.h"
   301  0000                     ADCON0 equ 0FC2h ;# 
   302                           # 2880 "C:\Program Files (x86)\HI-TECH Software\PICC-18\9.80\include\pic18f4550.h"
   303  0000                     ADRES equ 0FC3h ;# 
   304                           # 2892 "C:\Program Files (x86)\HI-TECH Software\PICC-18\9.80\include\pic18f4550.h"
   305  0000                     ADRESL equ 0FC3h ;# 
   306                           # 2904 "C:\Program Files (x86)\HI-TECH Software\PICC-18\9.80\include\pic18f4550.h"
   307  0000                     ADRESH equ 0FC4h ;# 
   308                           # 2916 "C:\Program Files (x86)\HI-TECH Software\PICC-18\9.80\include\pic18f4550.h"
   309  0000                     SSPCON2 equ 0FC5h ;# 
   310                           # 2935 "C:\Program Files (x86)\HI-TECH Software\PICC-18\9.80\include\pic18f4550.h"
   311  0000                     SSPCON1 equ 0FC6h ;# 
   312                           # 2957 "C:\Program Files (x86)\HI-TECH Software\PICC-18\9.80\include\pic18f4550.h"
   313  0000                     SSPSTAT equ 0FC7h ;# 
   314                           # 3071 "C:\Program Files (x86)\HI-TECH Software\PICC-18\9.80\include\pic18f4550.h"
   315  0000                     SSPADD equ 0FC8h ;# 
   316                           # 3083 "C:\Program Files (x86)\HI-TECH Software\PICC-18\9.80\include\pic18f4550.h"
   317  0000                     SSPBUF equ 0FC9h ;# 
   318                           # 3095 "C:\Program Files (x86)\HI-TECH Software\PICC-18\9.80\include\pic18f4550.h"
   319  0000                     T2CON equ 0FCAh ;# 
   320                           # 3125 "C:\Program Files (x86)\HI-TECH Software\PICC-18\9.80\include\pic18f4550.h"
   321  0000                     PR2 equ 0FCBh ;# 
   322                           # 3130 "C:\Program Files (x86)\HI-TECH Software\PICC-18\9.80\include\pic18f4550.h"
   323  0000                     MEMCON equ 0FCBh ;# 
   324                           # 3148 "C:\Program Files (x86)\HI-TECH Software\PICC-18\9.80\include\pic18f4550.h"
   325  0000                     TMR2 equ 0FCCh ;# 
   326                           # 3160 "C:\Program Files (x86)\HI-TECH Software\PICC-18\9.80\include\pic18f4550.h"
   327  0000                     T1CON equ 0FCDh ;# 
   328                           # 3197 "C:\Program Files (x86)\HI-TECH Software\PICC-18\9.80\include\pic18f4550.h"
   329  0000                     TMR1 equ 0FCEh ;# 
   330                           # 3209 "C:\Program Files (x86)\HI-TECH Software\PICC-18\9.80\include\pic18f4550.h"
   331  0000                     TMR1L equ 0FCEh ;# 
   332                           # 3221 "C:\Program Files (x86)\HI-TECH Software\PICC-18\9.80\include\pic18f4550.h"
   333  0000                     TMR1H equ 0FCFh ;# 
   334                           # 3233 "C:\Program Files (x86)\HI-TECH Software\PICC-18\9.80\include\pic18f4550.h"
   335  0000                     RCON equ 0FD0h ;# 
   336                           # 3284 "C:\Program Files (x86)\HI-TECH Software\PICC-18\9.80\include\pic18f4550.h"
   337  0000                     WDTCON equ 0FD1h ;# 
   338                           # 3299 "C:\Program Files (x86)\HI-TECH Software\PICC-18\9.80\include\pic18f4550.h"
   339  0000                     HLVDCON equ 0FD2h ;# 
   340                           # 3304 "C:\Program Files (x86)\HI-TECH Software\PICC-18\9.80\include\pic18f4550.h"
   341  0000                     LVDCON equ 0FD2h ;# 
   342                           # 3374 "C:\Program Files (x86)\HI-TECH Software\PICC-18\9.80\include\pic18f4550.h"
   343  0000                     OSCCON equ 0FD3h ;# 
   344                           # 3399 "C:\Program Files (x86)\HI-TECH Software\PICC-18\9.80\include\pic18f4550.h"
   345  0000                     T0CON equ 0FD5h ;# 
   346                           # 3421 "C:\Program Files (x86)\HI-TECH Software\PICC-18\9.80\include\pic18f4550.h"
   347  0000                     TMR0 equ 0FD6h ;# 
   348                           # 3433 "C:\Program Files (x86)\HI-TECH Software\PICC-18\9.80\include\pic18f4550.h"
   349  0000                     TMR0L equ 0FD6h ;# 
   350                           # 3445 "C:\Program Files (x86)\HI-TECH Software\PICC-18\9.80\include\pic18f4550.h"
   351  0000                     TMR0H equ 0FD7h ;# 
   352                           # 3457 "C:\Program Files (x86)\HI-TECH Software\PICC-18\9.80\include\pic18f4550.h"
   353  0000                     STATUS equ 0FD8h ;# 
   354                           # 3488 "C:\Program Files (x86)\HI-TECH Software\PICC-18\9.80\include\pic18f4550.h"
   355  0000                     FSR2 equ 0FD9h ;# 
   356                           # 3500 "C:\Program Files (x86)\HI-TECH Software\PICC-18\9.80\include\pic18f4550.h"
   357  0000                     FSR2L equ 0FD9h ;# 
   358                           # 3512 "C:\Program Files (x86)\HI-TECH Software\PICC-18\9.80\include\pic18f4550.h"
   359  0000                     FSR2H equ 0FDAh ;# 
   360                           # 3524 "C:\Program Files (x86)\HI-TECH Software\PICC-18\9.80\include\pic18f4550.h"
   361  0000                     PLUSW2 equ 0FDBh ;# 
   362                           # 3536 "C:\Program Files (x86)\HI-TECH Software\PICC-18\9.80\include\pic18f4550.h"
   363  0000                     PREINC2 equ 0FDCh ;# 
   364                           # 3548 "C:\Program Files (x86)\HI-TECH Software\PICC-18\9.80\include\pic18f4550.h"
   365  0000                     POSTDEC2 equ 0FDDh ;# 
   366                           # 3560 "C:\Program Files (x86)\HI-TECH Software\PICC-18\9.80\include\pic18f4550.h"
   367  0000                     POSTINC2 equ 0FDEh ;# 
   368                           # 3572 "C:\Program Files (x86)\HI-TECH Software\PICC-18\9.80\include\pic18f4550.h"
   369  0000                     INDF2 equ 0FDFh ;# 
   370                           # 3584 "C:\Program Files (x86)\HI-TECH Software\PICC-18\9.80\include\pic18f4550.h"
   371  0000                     BSR equ 0FE0h ;# 
   372                           # 3596 "C:\Program Files (x86)\HI-TECH Software\PICC-18\9.80\include\pic18f4550.h"
   373  0000                     FSR1 equ 0FE1h ;# 
   374                           # 3608 "C:\Program Files (x86)\HI-TECH Software\PICC-18\9.80\include\pic18f4550.h"
   375  0000                     FSR1L equ 0FE1h ;# 
   376                           # 3620 "C:\Program Files (x86)\HI-TECH Software\PICC-18\9.80\include\pic18f4550.h"
   377  0000                     FSR1H equ 0FE2h ;# 
   378                           # 3632 "C:\Program Files (x86)\HI-TECH Software\PICC-18\9.80\include\pic18f4550.h"
   379  0000                     PLUSW1 equ 0FE3h ;# 
   380                           # 3644 "C:\Program Files (x86)\HI-TECH Software\PICC-18\9.80\include\pic18f4550.h"
   381  0000                     PREINC1 equ 0FE4h ;# 
   382                           # 3656 "C:\Program Files (x86)\HI-TECH Software\PICC-18\9.80\include\pic18f4550.h"
   383  0000                     POSTDEC1 equ 0FE5h ;# 
   384                           # 3668 "C:\Program Files (x86)\HI-TECH Software\PICC-18\9.80\include\pic18f4550.h"
   385  0000                     POSTINC1 equ 0FE6h ;# 
   386                           # 3680 "C:\Program Files (x86)\HI-TECH Software\PICC-18\9.80\include\pic18f4550.h"
   387  0000                     INDF1 equ 0FE7h ;# 
   388                           # 3692 "C:\Program Files (x86)\HI-TECH Software\PICC-18\9.80\include\pic18f4550.h"
   389  0000                     WREG equ 0FE8h ;# 
   390                           # 3704 "C:\Program Files (x86)\HI-TECH Software\PICC-18\9.80\include\pic18f4550.h"
   391  0000                     FSR0 equ 0FE9h ;# 
   392                           # 3716 "C:\Program Files (x86)\HI-TECH Software\PICC-18\9.80\include\pic18f4550.h"
   393  0000                     FSR0L equ 0FE9h ;# 
   394                           # 3728 "C:\Program Files (x86)\HI-TECH Software\PICC-18\9.80\include\pic18f4550.h"
   395  0000                     FSR0H equ 0FEAh ;# 
   396                           # 3740 "C:\Program Files (x86)\HI-TECH Software\PICC-18\9.80\include\pic18f4550.h"
   397  0000                     PLUSW0 equ 0FEBh ;# 
   398                           # 3752 "C:\Program Files (x86)\HI-TECH Software\PICC-18\9.80\include\pic18f4550.h"
   399  0000                     PREINC0 equ 0FECh ;# 
   400                           # 3764 "C:\Program Files (x86)\HI-TECH Software\PICC-18\9.80\include\pic18f4550.h"
   401  0000                     POSTDEC0 equ 0FEDh ;# 
   402                           # 3776 "C:\Program Files (x86)\HI-TECH Software\PICC-18\9.80\include\pic18f4550.h"
   403  0000                     POSTINC0 equ 0FEEh ;# 
   404                           # 3788 "C:\Program Files (x86)\HI-TECH Software\PICC-18\9.80\include\pic18f4550.h"
   405  0000                     INDF0 equ 0FEFh ;# 
   406                           # 3800 "C:\Program Files (x86)\HI-TECH Software\PICC-18\9.80\include\pic18f4550.h"
   407  0000                     INTCON3 equ 0FF0h ;# 
   408                           # 3829 "C:\Program Files (x86)\HI-TECH Software\PICC-18\9.80\include\pic18f4550.h"
   409  0000                     INTCON2 equ 0FF1h ;# 
   410                           # 3858 "C:\Program Files (x86)\HI-TECH Software\PICC-18\9.80\include\pic18f4550.h"
   411  0000                     INTCON equ 0FF2h ;# 
   412                           # 3922 "C:\Program Files (x86)\HI-TECH Software\PICC-18\9.80\include\pic18f4550.h"
   413  0000                     PROD equ 0FF3h ;# 
   414                           # 3934 "C:\Program Files (x86)\HI-TECH Software\PICC-18\9.80\include\pic18f4550.h"
   415  0000                     PRODL equ 0FF3h ;# 
   416                           # 3946 "C:\Program Files (x86)\HI-TECH Software\PICC-18\9.80\include\pic18f4550.h"
   417  0000                     PRODH equ 0FF4h ;# 
   418                           # 3958 "C:\Program Files (x86)\HI-TECH Software\PICC-18\9.80\include\pic18f4550.h"
   419  0000                     TABLAT equ 0FF5h ;# 
   420                           # 3970 "C:\Program Files (x86)\HI-TECH Software\PICC-18\9.80\include\pic18f4550.h"
   421  0000                     TBLPTR equ 0FF6h ;# 
   422                           # 3982 "C:\Program Files (x86)\HI-TECH Software\PICC-18\9.80\include\pic18f4550.h"
   423  0000                     TBLPTRL equ 0FF6h ;# 
   424                           # 3994 "C:\Program Files (x86)\HI-TECH Software\PICC-18\9.80\include\pic18f4550.h"
   425  0000                     TBLPTRH equ 0FF7h ;# 
   426                           # 4006 "C:\Program Files (x86)\HI-TECH Software\PICC-18\9.80\include\pic18f4550.h"
   427  0000                     TBLPTRU equ 0FF8h ;# 
   428                           # 4018 "C:\Program Files (x86)\HI-TECH Software\PICC-18\9.80\include\pic18f4550.h"
   429  0000                     PCLAT equ 0FF9h ;# 
   430                           # 4023 "C:\Program Files (x86)\HI-TECH Software\PICC-18\9.80\include\pic18f4550.h"
   431  0000                     PC equ 0FF9h ;# 
   432                           # 4041 "C:\Program Files (x86)\HI-TECH Software\PICC-18\9.80\include\pic18f4550.h"
   433  0000                     PCL equ 0FF9h ;# 
   434                           # 4053 "C:\Program Files (x86)\HI-TECH Software\PICC-18\9.80\include\pic18f4550.h"
   435  0000                     PCLATH equ 0FFAh ;# 
   436                           # 4065 "C:\Program Files (x86)\HI-TECH Software\PICC-18\9.80\include\pic18f4550.h"
   437  0000                     PCLATU equ 0FFBh ;# 
   438                           # 4077 "C:\Program Files (x86)\HI-TECH Software\PICC-18\9.80\include\pic18f4550.h"
   439  0000                     STKPTR equ 0FFCh ;# 
   440                           # 4103 "C:\Program Files (x86)\HI-TECH Software\PICC-18\9.80\include\pic18f4550.h"
   441  0000                     TOS equ 0FFDh ;# 
   442                           # 4115 "C:\Program Files (x86)\HI-TECH Software\PICC-18\9.80\include\pic18f4550.h"
   443  0000                     TOSL equ 0FFDh ;# 
   444                           # 4127 "C:\Program Files (x86)\HI-TECH Software\PICC-18\9.80\include\pic18f4550.h"
   445  0000                     TOSH equ 0FFEh ;# 
   446                           # 4139 "C:\Program Files (x86)\HI-TECH Software\PICC-18\9.80\include\pic18f4550.h"
   447  0000                     TOSU equ 0FFFh ;# 
   448                           # 19 "C:\Program Files (x86)\HI-TECH Software\PICC-18\9.80\include\pic18f4550.h"
   449  0000                     SPPDATA equ 0F62h ;# 
   450                           # 31 "C:\Program Files (x86)\HI-TECH Software\PICC-18\9.80\include\pic18f4550.h"
   451  0000                     SPPCFG equ 0F63h ;# 
   452                           # 55 "C:\Program Files (x86)\HI-TECH Software\PICC-18\9.80\include\pic18f4550.h"
   453  0000                     SPPEPS equ 0F64h ;# 
   454                           # 81 "C:\Program Files (x86)\HI-TECH Software\PICC-18\9.80\include\pic18f4550.h"
   455  0000                     SPPCON equ 0F65h ;# 
   456                           # 94 "C:\Program Files (x86)\HI-TECH Software\PICC-18\9.80\include\pic18f4550.h"
   457  0000                     UFRM equ 0F66h ;# 
   458                           # 106 "C:\Program Files (x86)\HI-TECH Software\PICC-18\9.80\include\pic18f4550.h"
   459  0000                     UFRML equ 0F66h ;# 
   460                           # 131 "C:\Program Files (x86)\HI-TECH Software\PICC-18\9.80\include\pic18f4550.h"
   461  0000                     UFRMH equ 0F67h ;# 
   462                           # 148 "C:\Program Files (x86)\HI-TECH Software\PICC-18\9.80\include\pic18f4550.h"
   463  0000                     UIR equ 0F68h ;# 
   464                           # 166 "C:\Program Files (x86)\HI-TECH Software\PICC-18\9.80\include\pic18f4550.h"
   465  0000                     UIE equ 0F69h ;# 
   466                           # 184 "C:\Program Files (x86)\HI-TECH Software\PICC-18\9.80\include\pic18f4550.h"
   467  0000                     UEIR equ 0F6Ah ;# 
   468                           # 202 "C:\Program Files (x86)\HI-TECH Software\PICC-18\9.80\include\pic18f4550.h"
   469  0000                     UEIE equ 0F6Bh ;# 
   470                           # 220 "C:\Program Files (x86)\HI-TECH Software\PICC-18\9.80\include\pic18f4550.h"
   471  0000                     USTAT equ 0F6Ch ;# 
   472                           # 242 "C:\Program Files (x86)\HI-TECH Software\PICC-18\9.80\include\pic18f4550.h"
   473  0000                     UCON equ 0F6Dh ;# 
   474                           # 260 "C:\Program Files (x86)\HI-TECH Software\PICC-18\9.80\include\pic18f4550.h"
   475  0000                     UADDR equ 0F6Eh ;# 
   476                           # 281 "C:\Program Files (x86)\HI-TECH Software\PICC-18\9.80\include\pic18f4550.h"
   477  0000                     UCFG equ 0F6Fh ;# 
   478                           # 310 "C:\Program Files (x86)\HI-TECH Software\PICC-18\9.80\include\pic18f4550.h"
   479  0000                     UEP0 equ 0F70h ;# 
   480                           # 364 "C:\Program Files (x86)\HI-TECH Software\PICC-18\9.80\include\pic18f4550.h"
   481  0000                     UEP1 equ 0F71h ;# 
   482                           # 418 "C:\Program Files (x86)\HI-TECH Software\PICC-18\9.80\include\pic18f4550.h"
   483  0000                     UEP2 equ 0F72h ;# 
   484                           # 472 "C:\Program Files (x86)\HI-TECH Software\PICC-18\9.80\include\pic18f4550.h"
   485  0000                     UEP3 equ 0F73h ;# 
   486                           # 526 "C:\Program Files (x86)\HI-TECH Software\PICC-18\9.80\include\pic18f4550.h"
   487  0000                     UEP4 equ 0F74h ;# 
   488                           # 580 "C:\Program Files (x86)\HI-TECH Software\PICC-18\9.80\include\pic18f4550.h"
   489  0000                     UEP5 equ 0F75h ;# 
   490                           # 634 "C:\Program Files (x86)\HI-TECH Software\PICC-18\9.80\include\pic18f4550.h"
   491  0000                     UEP6 equ 0F76h ;# 
   492                           # 688 "C:\Program Files (x86)\HI-TECH Software\PICC-18\9.80\include\pic18f4550.h"
   493  0000                     UEP7 equ 0F77h ;# 
   494                           # 742 "C:\Program Files (x86)\HI-TECH Software\PICC-18\9.80\include\pic18f4550.h"
   495  0000                     UEP8 equ 0F78h ;# 
   496                           # 777 "C:\Program Files (x86)\HI-TECH Software\PICC-18\9.80\include\pic18f4550.h"
   497  0000                     UEP9 equ 0F79h ;# 
   498                           # 812 "C:\Program Files (x86)\HI-TECH Software\PICC-18\9.80\include\pic18f4550.h"
   499  0000                     UEP10 equ 0F7Ah ;# 
   500                           # 847 "C:\Program Files (x86)\HI-TECH Software\PICC-18\9.80\include\pic18f4550.h"
   501  0000                     UEP11 equ 0F7Bh ;# 
   502                           # 882 "C:\Program Files (x86)\HI-TECH Software\PICC-18\9.80\include\pic18f4550.h"
   503  0000                     UEP12 equ 0F7Ch ;# 
   504                           # 917 "C:\Program Files (x86)\HI-TECH Software\PICC-18\9.80\include\pic18f4550.h"
   505  0000                     UEP13 equ 0F7Dh ;# 
   506                           # 952 "C:\Program Files (x86)\HI-TECH Software\PICC-18\9.80\include\pic18f4550.h"
   507  0000                     UEP14 equ 0F7Eh ;# 
   508                           # 987 "C:\Program Files (x86)\HI-TECH Software\PICC-18\9.80\include\pic18f4550.h"
   509  0000                     UEP15 equ 0F7Fh ;# 
   510                           # 1022 "C:\Program Files (x86)\HI-TECH Software\PICC-18\9.80\include\pic18f4550.h"
   511  0000                     PORTA equ 0F80h ;# 
   512                           # 1074 "C:\Program Files (x86)\HI-TECH Software\PICC-18\9.80\include\pic18f4550.h"
   513  0000                     PORTB equ 0F81h ;# 
   514                           # 1109 "C:\Program Files (x86)\HI-TECH Software\PICC-18\9.80\include\pic18f4550.h"
   515  0000                     PORTC equ 0F82h ;# 
   516                           # 1163 "C:\Program Files (x86)\HI-TECH Software\PICC-18\9.80\include\pic18f4550.h"
   517  0000                     PORTD equ 0F83h ;# 
   518                           # 1199 "C:\Program Files (x86)\HI-TECH Software\PICC-18\9.80\include\pic18f4550.h"
   519  0000                     PORTE equ 0F84h ;# 
   520                           # 1306 "C:\Program Files (x86)\HI-TECH Software\PICC-18\9.80\include\pic18f4550.h"
   521  0000                     LATA equ 0F89h ;# 
   522                           # 1362 "C:\Program Files (x86)\HI-TECH Software\PICC-18\9.80\include\pic18f4550.h"
   523  0000                     LATB equ 0F8Ah ;# 
   524                           # 1415 "C:\Program Files (x86)\HI-TECH Software\PICC-18\9.80\include\pic18f4550.h"
   525  0000                     LATC equ 0F8Bh ;# 
   526                           # 1466 "C:\Program Files (x86)\HI-TECH Software\PICC-18\9.80\include\pic18f4550.h"
   527  0000                     LATD equ 0F8Ch ;# 
   528                           # 1519 "C:\Program Files (x86)\HI-TECH Software\PICC-18\9.80\include\pic18f4550.h"
   529  0000                     LATE equ 0F8Dh ;# 
   530                           # 1567 "C:\Program Files (x86)\HI-TECH Software\PICC-18\9.80\include\pic18f4550.h"
   531  0000                     TRISA equ 0F92h ;# 
   532                           # 1572 "C:\Program Files (x86)\HI-TECH Software\PICC-18\9.80\include\pic18f4550.h"
   533  0000                     DDRA equ 0F92h ;# 
   534                           # 1626 "C:\Program Files (x86)\HI-TECH Software\PICC-18\9.80\include\pic18f4550.h"
   535  0000                     TRISB equ 0F93h ;# 
   536                           # 1631 "C:\Program Files (x86)\HI-TECH Software\PICC-18\9.80\include\pic18f4550.h"
   537  0000                     DDRB equ 0F93h ;# 
   538                           # 1689 "C:\Program Files (x86)\HI-TECH Software\PICC-18\9.80\include\pic18f4550.h"
   539  0000                     TRISC equ 0F94h ;# 
   540                           # 1694 "C:\Program Files (x86)\HI-TECH Software\PICC-18\9.80\include\pic18f4550.h"
   541  0000                     DDRC equ 0F94h ;# 
   542                           # 1752 "C:\Program Files (x86)\HI-TECH Software\PICC-18\9.80\include\pic18f4550.h"
   543  0000                     TRISD equ 0F95h ;# 
   544                           # 1757 "C:\Program Files (x86)\HI-TECH Software\PICC-18\9.80\include\pic18f4550.h"
   545  0000                     DDRD equ 0F95h ;# 
   546                           # 1815 "C:\Program Files (x86)\HI-TECH Software\PICC-18\9.80\include\pic18f4550.h"
   547  0000                     TRISE equ 0F96h ;# 
   548                           # 1820 "C:\Program Files (x86)\HI-TECH Software\PICC-18\9.80\include\pic18f4550.h"
   549  0000                     DDRE equ 0F96h ;# 
   550                           # 1858 "C:\Program Files (x86)\HI-TECH Software\PICC-18\9.80\include\pic18f4550.h"
   551  0000                     OSCTUNE equ 0F9Bh ;# 
   552                           # 1879 "C:\Program Files (x86)\HI-TECH Software\PICC-18\9.80\include\pic18f4550.h"
   553  0000                     PIE1 equ 0F9Dh ;# 
   554                           # 1910 "C:\Program Files (x86)\HI-TECH Software\PICC-18\9.80\include\pic18f4550.h"
   555  0000                     PIR1 equ 0F9Eh ;# 
   556                           # 1941 "C:\Program Files (x86)\HI-TECH Software\PICC-18\9.80\include\pic18f4550.h"
   557  0000                     IPR1 equ 0F9Fh ;# 
   558                           # 1972 "C:\Program Files (x86)\HI-TECH Software\PICC-18\9.80\include\pic18f4550.h"
   559  0000                     PIE2 equ 0FA0h ;# 
   560                           # 1995 "C:\Program Files (x86)\HI-TECH Software\PICC-18\9.80\include\pic18f4550.h"
   561  0000                     PIR2 equ 0FA1h ;# 
   562                           # 2018 "C:\Program Files (x86)\HI-TECH Software\PICC-18\9.80\include\pic18f4550.h"
   563  0000                     IPR2 equ 0FA2h ;# 
   564                           # 2041 "C:\Program Files (x86)\HI-TECH Software\PICC-18\9.80\include\pic18f4550.h"
   565  0000                     EECON1 equ 0FA6h ;# 
   566                           # 2064 "C:\Program Files (x86)\HI-TECH Software\PICC-18\9.80\include\pic18f4550.h"
   567  0000                     EECON2 equ 0FA7h ;# 
   568                           # 2076 "C:\Program Files (x86)\HI-TECH Software\PICC-18\9.80\include\pic18f4550.h"
   569  0000                     EEDATA equ 0FA8h ;# 
   570                           # 2088 "C:\Program Files (x86)\HI-TECH Software\PICC-18\9.80\include\pic18f4550.h"
   571  0000                     EEADR equ 0FA9h ;# 
   572                           # 2100 "C:\Program Files (x86)\HI-TECH Software\PICC-18\9.80\include\pic18f4550.h"
   573  0000                     RCSTA equ 0FABh ;# 
   574                           # 2105 "C:\Program Files (x86)\HI-TECH Software\PICC-18\9.80\include\pic18f4550.h"
   575  0000                     RCSTA1 equ 0FABh ;# 
   576                           # 2153 "C:\Program Files (x86)\HI-TECH Software\PICC-18\9.80\include\pic18f4550.h"
   577  0000                     TXSTA equ 0FACh ;# 
   578                           # 2158 "C:\Program Files (x86)\HI-TECH Software\PICC-18\9.80\include\pic18f4550.h"
   579  0000                     TXSTA1 equ 0FACh ;# 
   580                           # 2252 "C:\Program Files (x86)\HI-TECH Software\PICC-18\9.80\include\pic18f4550.h"
   581  0000                     TXREG equ 0FADh ;# 
   582                           # 2257 "C:\Program Files (x86)\HI-TECH Software\PICC-18\9.80\include\pic18f4550.h"
   583  0000                     TXREG1 equ 0FADh ;# 
   584                           # 2275 "C:\Program Files (x86)\HI-TECH Software\PICC-18\9.80\include\pic18f4550.h"
   585  0000                     RCREG equ 0FAEh ;# 
   586                           # 2280 "C:\Program Files (x86)\HI-TECH Software\PICC-18\9.80\include\pic18f4550.h"
   587  0000                     RCREG1 equ 0FAEh ;# 
   588                           # 2298 "C:\Program Files (x86)\HI-TECH Software\PICC-18\9.80\include\pic18f4550.h"
   589  0000                     SPBRG equ 0FAFh ;# 
   590                           # 2303 "C:\Program Files (x86)\HI-TECH Software\PICC-18\9.80\include\pic18f4550.h"
   591  0000                     SPBRG1 equ 0FAFh ;# 
   592                           # 2321 "C:\Program Files (x86)\HI-TECH Software\PICC-18\9.80\include\pic18f4550.h"
   593  0000                     SPBRGH equ 0FB0h ;# 
   594                           # 2333 "C:\Program Files (x86)\HI-TECH Software\PICC-18\9.80\include\pic18f4550.h"
   595  0000                     T3CON equ 0FB1h ;# 
   596                           # 2378 "C:\Program Files (x86)\HI-TECH Software\PICC-18\9.80\include\pic18f4550.h"
   597  0000                     TMR3 equ 0FB2h ;# 
   598                           # 2390 "C:\Program Files (x86)\HI-TECH Software\PICC-18\9.80\include\pic18f4550.h"
   599  0000                     TMR3L equ 0FB2h ;# 
   600                           # 2402 "C:\Program Files (x86)\HI-TECH Software\PICC-18\9.80\include\pic18f4550.h"
   601  0000                     TMR3H equ 0FB3h ;# 
   602                           # 2414 "C:\Program Files (x86)\HI-TECH Software\PICC-18\9.80\include\pic18f4550.h"
   603  0000                     CMCON equ 0FB4h ;# 
   604                           # 2447 "C:\Program Files (x86)\HI-TECH Software\PICC-18\9.80\include\pic18f4550.h"
   605  0000                     CVRCON equ 0FB5h ;# 
   606                           # 2474 "C:\Program Files (x86)\HI-TECH Software\PICC-18\9.80\include\pic18f4550.h"
   607  0000                     ECCP1AS equ 0FB6h ;# 
   608                           # 2479 "C:\Program Files (x86)\HI-TECH Software\PICC-18\9.80\include\pic18f4550.h"
   609  0000                     CCP1AS equ 0FB6h ;# 
   610                           # 2521 "C:\Program Files (x86)\HI-TECH Software\PICC-18\9.80\include\pic18f4550.h"
   611  0000                     ECCP1DEL equ 0FB7h ;# 
   612                           # 2526 "C:\Program Files (x86)\HI-TECH Software\PICC-18\9.80\include\pic18f4550.h"
   613  0000                     CCP1DEL equ 0FB7h ;# 
   614                           # 2564 "C:\Program Files (x86)\HI-TECH Software\PICC-18\9.80\include\pic18f4550.h"
   615  0000                     BAUDCON equ 0FB8h ;# 
   616                           # 2569 "C:\Program Files (x86)\HI-TECH Software\PICC-18\9.80\include\pic18f4550.h"
   617  0000                     BAUDCTL equ 0FB8h ;# 
   618                           # 2629 "C:\Program Files (x86)\HI-TECH Software\PICC-18\9.80\include\pic18f4550.h"
   619  0000                     CCP2CON equ 0FBAh ;# 
   620                           # 2650 "C:\Program Files (x86)\HI-TECH Software\PICC-18\9.80\include\pic18f4550.h"
   621  0000                     CCPR2 equ 0FBBh ;# 
   622                           # 2662 "C:\Program Files (x86)\HI-TECH Software\PICC-18\9.80\include\pic18f4550.h"
   623  0000                     CCPR2L equ 0FBBh ;# 
   624                           # 2674 "C:\Program Files (x86)\HI-TECH Software\PICC-18\9.80\include\pic18f4550.h"
   625  0000                     CCPR2H equ 0FBCh ;# 
   626                           # 2686 "C:\Program Files (x86)\HI-TECH Software\PICC-18\9.80\include\pic18f4550.h"
   627  0000                     CCP1CON equ 0FBDh ;# 
   628                           # 2691 "C:\Program Files (x86)\HI-TECH Software\PICC-18\9.80\include\pic18f4550.h"
   629  0000                     ECCP1CON equ 0FBDh ;# 
   630                           # 2733 "C:\Program Files (x86)\HI-TECH Software\PICC-18\9.80\include\pic18f4550.h"
   631  0000                     CCPR1 equ 0FBEh ;# 
   632                           # 2745 "C:\Program Files (x86)\HI-TECH Software\PICC-18\9.80\include\pic18f4550.h"
   633  0000                     CCPR1L equ 0FBEh ;# 
   634                           # 2757 "C:\Program Files (x86)\HI-TECH Software\PICC-18\9.80\include\pic18f4550.h"
   635  0000                     CCPR1H equ 0FBFh ;# 
   636                           # 2769 "C:\Program Files (x86)\HI-TECH Software\PICC-18\9.80\include\pic18f4550.h"
   637  0000                     ADCON2 equ 0FC0h ;# 
   638                           # 2792 "C:\Program Files (x86)\HI-TECH Software\PICC-18\9.80\include\pic18f4550.h"
   639  0000                     ADCON1 equ 0FC1h ;# 
   640                           # 2825 "C:\Program Files (x86)\HI-TECH Software\PICC-18\9.80\include\pic18f4550.h"
   641  0000                     ADCON0 equ 0FC2h ;# 
   642                           # 2880 "C:\Program Files (x86)\HI-TECH Software\PICC-18\9.80\include\pic18f4550.h"
   643  0000                     ADRES equ 0FC3h ;# 
   644                           # 2892 "C:\Program Files (x86)\HI-TECH Software\PICC-18\9.80\include\pic18f4550.h"
   645  0000                     ADRESL equ 0FC3h ;# 
   646                           # 2904 "C:\Program Files (x86)\HI-TECH Software\PICC-18\9.80\include\pic18f4550.h"
   647  0000                     ADRESH equ 0FC4h ;# 
   648                           # 2916 "C:\Program Files (x86)\HI-TECH Software\PICC-18\9.80\include\pic18f4550.h"
   649  0000                     SSPCON2 equ 0FC5h ;# 
   650                           # 2935 "C:\Program Files (x86)\HI-TECH Software\PICC-18\9.80\include\pic18f4550.h"
   651  0000                     SSPCON1 equ 0FC6h ;# 
   652                           # 2957 "C:\Program Files (x86)\HI-TECH Software\PICC-18\9.80\include\pic18f4550.h"
   653  0000                     SSPSTAT equ 0FC7h ;# 
   654                           # 3071 "C:\Program Files (x86)\HI-TECH Software\PICC-18\9.80\include\pic18f4550.h"
   655  0000                     SSPADD equ 0FC8h ;# 
   656                           # 3083 "C:\Program Files (x86)\HI-TECH Software\PICC-18\9.80\include\pic18f4550.h"
   657  0000                     SSPBUF equ 0FC9h ;# 
   658                           # 3095 "C:\Program Files (x86)\HI-TECH Software\PICC-18\9.80\include\pic18f4550.h"
   659  0000                     T2CON equ 0FCAh ;# 
   660                           # 3125 "C:\Program Files (x86)\HI-TECH Software\PICC-18\9.80\include\pic18f4550.h"
   661  0000                     PR2 equ 0FCBh ;# 
   662                           # 3130 "C:\Program Files (x86)\HI-TECH Software\PICC-18\9.80\include\pic18f4550.h"
   663  0000                     MEMCON equ 0FCBh ;# 
   664                           # 3148 "C:\Program Files (x86)\HI-TECH Software\PICC-18\9.80\include\pic18f4550.h"
   665  0000                     TMR2 equ 0FCCh ;# 
   666                           # 3160 "C:\Program Files (x86)\HI-TECH Software\PICC-18\9.80\include\pic18f4550.h"
   667  0000                     T1CON equ 0FCDh ;# 
   668                           # 3197 "C:\Program Files (x86)\HI-TECH Software\PICC-18\9.80\include\pic18f4550.h"
   669  0000                     TMR1 equ 0FCEh ;# 
   670                           # 3209 "C:\Program Files (x86)\HI-TECH Software\PICC-18\9.80\include\pic18f4550.h"
   671  0000                     TMR1L equ 0FCEh ;# 
   672                           # 3221 "C:\Program Files (x86)\HI-TECH Software\PICC-18\9.80\include\pic18f4550.h"
   673  0000                     TMR1H equ 0FCFh ;# 
   674                           # 3233 "C:\Program Files (x86)\HI-TECH Software\PICC-18\9.80\include\pic18f4550.h"
   675  0000                     RCON equ 0FD0h ;# 
   676                           # 3284 "C:\Program Files (x86)\HI-TECH Software\PICC-18\9.80\include\pic18f4550.h"
   677  0000                     WDTCON equ 0FD1h ;# 
   678                           # 3299 "C:\Program Files (x86)\HI-TECH Software\PICC-18\9.80\include\pic18f4550.h"
   679  0000                     HLVDCON equ 0FD2h ;# 
   680                           # 3304 "C:\Program Files (x86)\HI-TECH Software\PICC-18\9.80\include\pic18f4550.h"
   681  0000                     LVDCON equ 0FD2h ;# 
   682                           # 3374 "C:\Program Files (x86)\HI-TECH Software\PICC-18\9.80\include\pic18f4550.h"
   683  0000                     OSCCON equ 0FD3h ;# 
   684                           # 3399 "C:\Program Files (x86)\HI-TECH Software\PICC-18\9.80\include\pic18f4550.h"
   685  0000                     T0CON equ 0FD5h ;# 
   686                           # 3421 "C:\Program Files (x86)\HI-TECH Software\PICC-18\9.80\include\pic18f4550.h"
   687  0000                     TMR0 equ 0FD6h ;# 
   688                           # 3433 "C:\Program Files (x86)\HI-TECH Software\PICC-18\9.80\include\pic18f4550.h"
   689  0000                     TMR0L equ 0FD6h ;# 
   690                           # 3445 "C:\Program Files (x86)\HI-TECH Software\PICC-18\9.80\include\pic18f4550.h"
   691  0000                     TMR0H equ 0FD7h ;# 
   692                           # 3457 "C:\Program Files (x86)\HI-TECH Software\PICC-18\9.80\include\pic18f4550.h"
   693  0000                     STATUS equ 0FD8h ;# 
   694                           # 3488 "C:\Program Files (x86)\HI-TECH Software\PICC-18\9.80\include\pic18f4550.h"
   695  0000                     FSR2 equ 0FD9h ;# 
   696                           # 3500 "C:\Program Files (x86)\HI-TECH Software\PICC-18\9.80\include\pic18f4550.h"
   697  0000                     FSR2L equ 0FD9h ;# 
   698                           # 3512 "C:\Program Files (x86)\HI-TECH Software\PICC-18\9.80\include\pic18f4550.h"
   699  0000                     FSR2H equ 0FDAh ;# 
   700                           # 3524 "C:\Program Files (x86)\HI-TECH Software\PICC-18\9.80\include\pic18f4550.h"
   701  0000                     PLUSW2 equ 0FDBh ;# 
   702                           # 3536 "C:\Program Files (x86)\HI-TECH Software\PICC-18\9.80\include\pic18f4550.h"
   703  0000                     PREINC2 equ 0FDCh ;# 
   704                           # 3548 "C:\Program Files (x86)\HI-TECH Software\PICC-18\9.80\include\pic18f4550.h"
   705  0000                     POSTDEC2 equ 0FDDh ;# 
   706                           # 3560 "C:\Program Files (x86)\HI-TECH Software\PICC-18\9.80\include\pic18f4550.h"
   707  0000                     POSTINC2 equ 0FDEh ;# 
   708                           # 3572 "C:\Program Files (x86)\HI-TECH Software\PICC-18\9.80\include\pic18f4550.h"
   709  0000                     INDF2 equ 0FDFh ;# 
   710                           # 3584 "C:\Program Files (x86)\HI-TECH Software\PICC-18\9.80\include\pic18f4550.h"
   711  0000                     BSR equ 0FE0h ;# 
   712                           # 3596 "C:\Program Files (x86)\HI-TECH Software\PICC-18\9.80\include\pic18f4550.h"
   713  0000                     FSR1 equ 0FE1h ;# 
   714                           # 3608 "C:\Program Files (x86)\HI-TECH Software\PICC-18\9.80\include\pic18f4550.h"
   715  0000                     FSR1L equ 0FE1h ;# 
   716                           # 3620 "C:\Program Files (x86)\HI-TECH Software\PICC-18\9.80\include\pic18f4550.h"
   717  0000                     FSR1H equ 0FE2h ;# 
   718                           # 3632 "C:\Program Files (x86)\HI-TECH Software\PICC-18\9.80\include\pic18f4550.h"
   719  0000                     PLUSW1 equ 0FE3h ;# 
   720                           # 3644 "C:\Program Files (x86)\HI-TECH Software\PICC-18\9.80\include\pic18f4550.h"
   721  0000                     PREINC1 equ 0FE4h ;# 
   722                           # 3656 "C:\Program Files (x86)\HI-TECH Software\PICC-18\9.80\include\pic18f4550.h"
   723  0000                     POSTDEC1 equ 0FE5h ;# 
   724                           # 3668 "C:\Program Files (x86)\HI-TECH Software\PICC-18\9.80\include\pic18f4550.h"
   725  0000                     POSTINC1 equ 0FE6h ;# 
   726                           # 3680 "C:\Program Files (x86)\HI-TECH Software\PICC-18\9.80\include\pic18f4550.h"
   727  0000                     INDF1 equ 0FE7h ;# 
   728                           # 3692 "C:\Program Files (x86)\HI-TECH Software\PICC-18\9.80\include\pic18f4550.h"
   729  0000                     WREG equ 0FE8h ;# 
   730                           # 3704 "C:\Program Files (x86)\HI-TECH Software\PICC-18\9.80\include\pic18f4550.h"
   731  0000                     FSR0 equ 0FE9h ;# 
   732                           # 3716 "C:\Program Files (x86)\HI-TECH Software\PICC-18\9.80\include\pic18f4550.h"
   733  0000                     FSR0L equ 0FE9h ;# 
   734                           # 3728 "C:\Program Files (x86)\HI-TECH Software\PICC-18\9.80\include\pic18f4550.h"
   735  0000                     FSR0H equ 0FEAh ;# 
   736                           # 3740 "C:\Program Files (x86)\HI-TECH Software\PICC-18\9.80\include\pic18f4550.h"
   737  0000                     PLUSW0 equ 0FEBh ;# 
   738                           # 3752 "C:\Program Files (x86)\HI-TECH Software\PICC-18\9.80\include\pic18f4550.h"
   739  0000                     PREINC0 equ 0FECh ;# 
   740                           # 3764 "C:\Program Files (x86)\HI-TECH Software\PICC-18\9.80\include\pic18f4550.h"
   741  0000                     POSTDEC0 equ 0FEDh ;# 
   742                           # 3776 "C:\Program Files (x86)\HI-TECH Software\PICC-18\9.80\include\pic18f4550.h"
   743  0000                     POSTINC0 equ 0FEEh ;# 
   744                           # 3788 "C:\Program Files (x86)\HI-TECH Software\PICC-18\9.80\include\pic18f4550.h"
   745  0000                     INDF0 equ 0FEFh ;# 
   746                           # 3800 "C:\Program Files (x86)\HI-TECH Software\PICC-18\9.80\include\pic18f4550.h"
   747  0000                     INTCON3 equ 0FF0h ;# 
   748                           # 3829 "C:\Program Files (x86)\HI-TECH Software\PICC-18\9.80\include\pic18f4550.h"
   749  0000                     INTCON2 equ 0FF1h ;# 
   750                           # 3858 "C:\Program Files (x86)\HI-TECH Software\PICC-18\9.80\include\pic18f4550.h"
   751  0000                     INTCON equ 0FF2h ;# 
   752                           # 3922 "C:\Program Files (x86)\HI-TECH Software\PICC-18\9.80\include\pic18f4550.h"
   753  0000                     PROD equ 0FF3h ;# 
   754                           # 3934 "C:\Program Files (x86)\HI-TECH Software\PICC-18\9.80\include\pic18f4550.h"
   755  0000                     PRODL equ 0FF3h ;# 
   756                           # 3946 "C:\Program Files (x86)\HI-TECH Software\PICC-18\9.80\include\pic18f4550.h"
   757  0000                     PRODH equ 0FF4h ;# 
   758                           # 3958 "C:\Program Files (x86)\HI-TECH Software\PICC-18\9.80\include\pic18f4550.h"
   759  0000                     TABLAT equ 0FF5h ;# 
   760                           # 3970 "C:\Program Files (x86)\HI-TECH Software\PICC-18\9.80\include\pic18f4550.h"
   761  0000                     TBLPTR equ 0FF6h ;# 
   762                           # 3982 "C:\Program Files (x86)\HI-TECH Software\PICC-18\9.80\include\pic18f4550.h"
   763  0000                     TBLPTRL equ 0FF6h ;# 
   764                           # 3994 "C:\Program Files (x86)\HI-TECH Software\PICC-18\9.80\include\pic18f4550.h"
   765  0000                     TBLPTRH equ 0FF7h ;# 
   766                           # 4006 "C:\Program Files (x86)\HI-TECH Software\PICC-18\9.80\include\pic18f4550.h"
   767  0000                     TBLPTRU equ 0FF8h ;# 
   768                           # 4018 "C:\Program Files (x86)\HI-TECH Software\PICC-18\9.80\include\pic18f4550.h"
   769  0000                     PCLAT equ 0FF9h ;# 
   770                           # 4023 "C:\Program Files (x86)\HI-TECH Software\PICC-18\9.80\include\pic18f4550.h"
   771  0000                     PC equ 0FF9h ;# 
   772                           # 4041 "C:\Program Files (x86)\HI-TECH Software\PICC-18\9.80\include\pic18f4550.h"
   773  0000                     PCL equ 0FF9h ;# 
   774                           # 4053 "C:\Program Files (x86)\HI-TECH Software\PICC-18\9.80\include\pic18f4550.h"
   775  0000                     PCLATH equ 0FFAh ;# 
   776                           # 4065 "C:\Program Files (x86)\HI-TECH Software\PICC-18\9.80\include\pic18f4550.h"
   777  0000                     PCLATU equ 0FFBh ;# 
   778                           # 4077 "C:\Program Files (x86)\HI-TECH Software\PICC-18\9.80\include\pic18f4550.h"
   779  0000                     STKPTR equ 0FFCh ;# 
   780                           # 4103 "C:\Program Files (x86)\HI-TECH Software\PICC-18\9.80\include\pic18f4550.h"
   781  0000                     TOS equ 0FFDh ;# 
   782                           # 4115 "C:\Program Files (x86)\HI-TECH Software\PICC-18\9.80\include\pic18f4550.h"
   783  0000                     TOSL equ 0FFDh ;# 
   784                           # 4127 "C:\Program Files (x86)\HI-TECH Software\PICC-18\9.80\include\pic18f4550.h"
   785  0000                     TOSH equ 0FFEh ;# 
   786                           # 4139 "C:\Program Files (x86)\HI-TECH Software\PICC-18\9.80\include\pic18f4550.h"
   787  0000                     TOSU equ 0FFFh ;# 
   788                           # 19 "C:\Program Files (x86)\HI-TECH Software\PICC-18\9.80\include\pic18f4550.h"
   789  0000                     SPPDATA equ 0F62h ;# 
   790                           # 31 "C:\Program Files (x86)\HI-TECH Software\PICC-18\9.80\include\pic18f4550.h"
   791  0000                     SPPCFG equ 0F63h ;# 
   792                           # 55 "C:\Program Files (x86)\HI-TECH Software\PICC-18\9.80\include\pic18f4550.h"
   793  0000                     SPPEPS equ 0F64h ;# 
   794                           # 81 "C:\Program Files (x86)\HI-TECH Software\PICC-18\9.80\include\pic18f4550.h"
   795  0000                     SPPCON equ 0F65h ;# 
   796                           # 94 "C:\Program Files (x86)\HI-TECH Software\PICC-18\9.80\include\pic18f4550.h"
   797  0000                     UFRM equ 0F66h ;# 
   798                           # 106 "C:\Program Files (x86)\HI-TECH Software\PICC-18\9.80\include\pic18f4550.h"
   799  0000                     UFRML equ 0F66h ;# 
   800                           # 131 "C:\Program Files (x86)\HI-TECH Software\PICC-18\9.80\include\pic18f4550.h"
   801  0000                     UFRMH equ 0F67h ;# 
   802                           # 148 "C:\Program Files (x86)\HI-TECH Software\PICC-18\9.80\include\pic18f4550.h"
   803  0000                     UIR equ 0F68h ;# 
   804                           # 166 "C:\Program Files (x86)\HI-TECH Software\PICC-18\9.80\include\pic18f4550.h"
   805  0000                     UIE equ 0F69h ;# 
   806                           # 184 "C:\Program Files (x86)\HI-TECH Software\PICC-18\9.80\include\pic18f4550.h"
   807  0000                     UEIR equ 0F6Ah ;# 
   808                           # 202 "C:\Program Files (x86)\HI-TECH Software\PICC-18\9.80\include\pic18f4550.h"
   809  0000                     UEIE equ 0F6Bh ;# 
   810                           # 220 "C:\Program Files (x86)\HI-TECH Software\PICC-18\9.80\include\pic18f4550.h"
   811  0000                     USTAT equ 0F6Ch ;# 
   812                           # 242 "C:\Program Files (x86)\HI-TECH Software\PICC-18\9.80\include\pic18f4550.h"
   813  0000                     UCON equ 0F6Dh ;# 
   814                           # 260 "C:\Program Files (x86)\HI-TECH Software\PICC-18\9.80\include\pic18f4550.h"
   815  0000                     UADDR equ 0F6Eh ;# 
   816                           # 281 "C:\Program Files (x86)\HI-TECH Software\PICC-18\9.80\include\pic18f4550.h"
   817  0000                     UCFG equ 0F6Fh ;# 
   818                           # 310 "C:\Program Files (x86)\HI-TECH Software\PICC-18\9.80\include\pic18f4550.h"
   819  0000                     UEP0 equ 0F70h ;# 
   820                           # 364 "C:\Program Files (x86)\HI-TECH Software\PICC-18\9.80\include\pic18f4550.h"
   821  0000                     UEP1 equ 0F71h ;# 
   822                           # 418 "C:\Program Files (x86)\HI-TECH Software\PICC-18\9.80\include\pic18f4550.h"
   823  0000                     UEP2 equ 0F72h ;# 
   824                           # 472 "C:\Program Files (x86)\HI-TECH Software\PICC-18\9.80\include\pic18f4550.h"
   825  0000                     UEP3 equ 0F73h ;# 
   826                           # 526 "C:\Program Files (x86)\HI-TECH Software\PICC-18\9.80\include\pic18f4550.h"
   827  0000                     UEP4 equ 0F74h ;# 
   828                           # 580 "C:\Program Files (x86)\HI-TECH Software\PICC-18\9.80\include\pic18f4550.h"
   829  0000                     UEP5 equ 0F75h ;# 
   830                           # 634 "C:\Program Files (x86)\HI-TECH Software\PICC-18\9.80\include\pic18f4550.h"
   831  0000                     UEP6 equ 0F76h ;# 
   832                           # 688 "C:\Program Files (x86)\HI-TECH Software\PICC-18\9.80\include\pic18f4550.h"
   833  0000                     UEP7 equ 0F77h ;# 
   834                           # 742 "C:\Program Files (x86)\HI-TECH Software\PICC-18\9.80\include\pic18f4550.h"
   835  0000                     UEP8 equ 0F78h ;# 
   836                           # 777 "C:\Program Files (x86)\HI-TECH Software\PICC-18\9.80\include\pic18f4550.h"
   837  0000                     UEP9 equ 0F79h ;# 
   838                           # 812 "C:\Program Files (x86)\HI-TECH Software\PICC-18\9.80\include\pic18f4550.h"
   839  0000                     UEP10 equ 0F7Ah ;# 
   840                           # 847 "C:\Program Files (x86)\HI-TECH Software\PICC-18\9.80\include\pic18f4550.h"
   841  0000                     UEP11 equ 0F7Bh ;# 
   842                           # 882 "C:\Program Files (x86)\HI-TECH Software\PICC-18\9.80\include\pic18f4550.h"
   843  0000                     UEP12 equ 0F7Ch ;# 
   844                           # 917 "C:\Program Files (x86)\HI-TECH Software\PICC-18\9.80\include\pic18f4550.h"
   845  0000                     UEP13 equ 0F7Dh ;# 
   846                           # 952 "C:\Program Files (x86)\HI-TECH Software\PICC-18\9.80\include\pic18f4550.h"
   847  0000                     UEP14 equ 0F7Eh ;# 
   848                           # 987 "C:\Program Files (x86)\HI-TECH Software\PICC-18\9.80\include\pic18f4550.h"
   849  0000                     UEP15 equ 0F7Fh ;# 
   850                           # 1022 "C:\Program Files (x86)\HI-TECH Software\PICC-18\9.80\include\pic18f4550.h"
   851  0000                     PORTA equ 0F80h ;# 
   852                           # 1074 "C:\Program Files (x86)\HI-TECH Software\PICC-18\9.80\include\pic18f4550.h"
   853  0000                     PORTB equ 0F81h ;# 
   854                           # 1109 "C:\Program Files (x86)\HI-TECH Software\PICC-18\9.80\include\pic18f4550.h"
   855  0000                     PORTC equ 0F82h ;# 
   856                           # 1163 "C:\Program Files (x86)\HI-TECH Software\PICC-18\9.80\include\pic18f4550.h"
   857  0000                     PORTD equ 0F83h ;# 
   858                           # 1199 "C:\Program Files (x86)\HI-TECH Software\PICC-18\9.80\include\pic18f4550.h"
   859  0000                     PORTE equ 0F84h ;# 
   860                           # 1306 "C:\Program Files (x86)\HI-TECH Software\PICC-18\9.80\include\pic18f4550.h"
   861  0000                     LATA equ 0F89h ;# 
   862                           # 1362 "C:\Program Files (x86)\HI-TECH Software\PICC-18\9.80\include\pic18f4550.h"
   863  0000                     LATB equ 0F8Ah ;# 
   864                           # 1415 "C:\Program Files (x86)\HI-TECH Software\PICC-18\9.80\include\pic18f4550.h"
   865  0000                     LATC equ 0F8Bh ;# 
   866                           # 1466 "C:\Program Files (x86)\HI-TECH Software\PICC-18\9.80\include\pic18f4550.h"
   867  0000                     LATD equ 0F8Ch ;# 
   868                           # 1519 "C:\Program Files (x86)\HI-TECH Software\PICC-18\9.80\include\pic18f4550.h"
   869  0000                     LATE equ 0F8Dh ;# 
   870                           # 1567 "C:\Program Files (x86)\HI-TECH Software\PICC-18\9.80\include\pic18f4550.h"
   871  0000                     TRISA equ 0F92h ;# 
   872                           # 1572 "C:\Program Files (x86)\HI-TECH Software\PICC-18\9.80\include\pic18f4550.h"
   873  0000                     DDRA equ 0F92h ;# 
   874                           # 1626 "C:\Program Files (x86)\HI-TECH Software\PICC-18\9.80\include\pic18f4550.h"
   875  0000                     TRISB equ 0F93h ;# 
   876                           # 1631 "C:\Program Files (x86)\HI-TECH Software\PICC-18\9.80\include\pic18f4550.h"
   877  0000                     DDRB equ 0F93h ;# 
   878                           # 1689 "C:\Program Files (x86)\HI-TECH Software\PICC-18\9.80\include\pic18f4550.h"
   879  0000                     TRISC equ 0F94h ;# 
   880                           # 1694 "C:\Program Files (x86)\HI-TECH Software\PICC-18\9.80\include\pic18f4550.h"
   881  0000                     DDRC equ 0F94h ;# 
   882                           # 1752 "C:\Program Files (x86)\HI-TECH Software\PICC-18\9.80\include\pic18f4550.h"
   883  0000                     TRISD equ 0F95h ;# 
   884                           # 1757 "C:\Program Files (x86)\HI-TECH Software\PICC-18\9.80\include\pic18f4550.h"
   885  0000                     DDRD equ 0F95h ;# 
   886                           # 1815 "C:\Program Files (x86)\HI-TECH Software\PICC-18\9.80\include\pic18f4550.h"
   887  0000                     TRISE equ 0F96h ;# 
   888                           # 1820 "C:\Program Files (x86)\HI-TECH Software\PICC-18\9.80\include\pic18f4550.h"
   889  0000                     DDRE equ 0F96h ;# 
   890                           # 1858 "C:\Program Files (x86)\HI-TECH Software\PICC-18\9.80\include\pic18f4550.h"
   891  0000                     OSCTUNE equ 0F9Bh ;# 
   892                           # 1879 "C:\Program Files (x86)\HI-TECH Software\PICC-18\9.80\include\pic18f4550.h"
   893  0000                     PIE1 equ 0F9Dh ;# 
   894                           # 1910 "C:\Program Files (x86)\HI-TECH Software\PICC-18\9.80\include\pic18f4550.h"
   895  0000                     PIR1 equ 0F9Eh ;# 
   896                           # 1941 "C:\Program Files (x86)\HI-TECH Software\PICC-18\9.80\include\pic18f4550.h"
   897  0000                     IPR1 equ 0F9Fh ;# 
   898                           # 1972 "C:\Program Files (x86)\HI-TECH Software\PICC-18\9.80\include\pic18f4550.h"
   899  0000                     PIE2 equ 0FA0h ;# 
   900                           # 1995 "C:\Program Files (x86)\HI-TECH Software\PICC-18\9.80\include\pic18f4550.h"
   901  0000                     PIR2 equ 0FA1h ;# 
   902                           # 2018 "C:\Program Files (x86)\HI-TECH Software\PICC-18\9.80\include\pic18f4550.h"
   903  0000                     IPR2 equ 0FA2h ;# 
   904                           # 2041 "C:\Program Files (x86)\HI-TECH Software\PICC-18\9.80\include\pic18f4550.h"
   905  0000                     EECON1 equ 0FA6h ;# 
   906                           # 2064 "C:\Program Files (x86)\HI-TECH Software\PICC-18\9.80\include\pic18f4550.h"
   907  0000                     EECON2 equ 0FA7h ;# 
   908                           # 2076 "C:\Program Files (x86)\HI-TECH Software\PICC-18\9.80\include\pic18f4550.h"
   909  0000                     EEDATA equ 0FA8h ;# 
   910                           # 2088 "C:\Program Files (x86)\HI-TECH Software\PICC-18\9.80\include\pic18f4550.h"
   911  0000                     EEADR equ 0FA9h ;# 
   912                           # 2100 "C:\Program Files (x86)\HI-TECH Software\PICC-18\9.80\include\pic18f4550.h"
   913  0000                     RCSTA equ 0FABh ;# 
   914                           # 2105 "C:\Program Files (x86)\HI-TECH Software\PICC-18\9.80\include\pic18f4550.h"
   915  0000                     RCSTA1 equ 0FABh ;# 
   916                           # 2153 "C:\Program Files (x86)\HI-TECH Software\PICC-18\9.80\include\pic18f4550.h"
   917  0000                     TXSTA equ 0FACh ;# 
   918                           # 2158 "C:\Program Files (x86)\HI-TECH Software\PICC-18\9.80\include\pic18f4550.h"
   919  0000                     TXSTA1 equ 0FACh ;# 
   920                           # 2252 "C:\Program Files (x86)\HI-TECH Software\PICC-18\9.80\include\pic18f4550.h"
   921  0000                     TXREG equ 0FADh ;# 
   922                           # 2257 "C:\Program Files (x86)\HI-TECH Software\PICC-18\9.80\include\pic18f4550.h"
   923  0000                     TXREG1 equ 0FADh ;# 
   924                           # 2275 "C:\Program Files (x86)\HI-TECH Software\PICC-18\9.80\include\pic18f4550.h"
   925  0000                     RCREG equ 0FAEh ;# 
   926                           # 2280 "C:\Program Files (x86)\HI-TECH Software\PICC-18\9.80\include\pic18f4550.h"
   927  0000                     RCREG1 equ 0FAEh ;# 
   928                           # 2298 "C:\Program Files (x86)\HI-TECH Software\PICC-18\9.80\include\pic18f4550.h"
   929  0000                     SPBRG equ 0FAFh ;# 
   930                           # 2303 "C:\Program Files (x86)\HI-TECH Software\PICC-18\9.80\include\pic18f4550.h"
   931  0000                     SPBRG1 equ 0FAFh ;# 
   932                           # 2321 "C:\Program Files (x86)\HI-TECH Software\PICC-18\9.80\include\pic18f4550.h"
   933  0000                     SPBRGH equ 0FB0h ;# 
   934                           # 2333 "C:\Program Files (x86)\HI-TECH Software\PICC-18\9.80\include\pic18f4550.h"
   935  0000                     T3CON equ 0FB1h ;# 
   936                           # 2378 "C:\Program Files (x86)\HI-TECH Software\PICC-18\9.80\include\pic18f4550.h"
   937  0000                     TMR3 equ 0FB2h ;# 
   938                           # 2390 "C:\Program Files (x86)\HI-TECH Software\PICC-18\9.80\include\pic18f4550.h"
   939  0000                     TMR3L equ 0FB2h ;# 
   940                           # 2402 "C:\Program Files (x86)\HI-TECH Software\PICC-18\9.80\include\pic18f4550.h"
   941  0000                     TMR3H equ 0FB3h ;# 
   942                           # 2414 "C:\Program Files (x86)\HI-TECH Software\PICC-18\9.80\include\pic18f4550.h"
   943  0000                     CMCON equ 0FB4h ;# 
   944                           # 2447 "C:\Program Files (x86)\HI-TECH Software\PICC-18\9.80\include\pic18f4550.h"
   945  0000                     CVRCON equ 0FB5h ;# 
   946                           # 2474 "C:\Program Files (x86)\HI-TECH Software\PICC-18\9.80\include\pic18f4550.h"
   947  0000                     ECCP1AS equ 0FB6h ;# 
   948                           # 2479 "C:\Program Files (x86)\HI-TECH Software\PICC-18\9.80\include\pic18f4550.h"
   949  0000                     CCP1AS equ 0FB6h ;# 
   950                           # 2521 "C:\Program Files (x86)\HI-TECH Software\PICC-18\9.80\include\pic18f4550.h"
   951  0000                     ECCP1DEL equ 0FB7h ;# 
   952                           # 2526 "C:\Program Files (x86)\HI-TECH Software\PICC-18\9.80\include\pic18f4550.h"
   953  0000                     CCP1DEL equ 0FB7h ;# 
   954                           # 2564 "C:\Program Files (x86)\HI-TECH Software\PICC-18\9.80\include\pic18f4550.h"
   955  0000                     BAUDCON equ 0FB8h ;# 
   956                           # 2569 "C:\Program Files (x86)\HI-TECH Software\PICC-18\9.80\include\pic18f4550.h"
   957  0000                     BAUDCTL equ 0FB8h ;# 
   958                           # 2629 "C:\Program Files (x86)\HI-TECH Software\PICC-18\9.80\include\pic18f4550.h"
   959  0000                     CCP2CON equ 0FBAh ;# 
   960                           # 2650 "C:\Program Files (x86)\HI-TECH Software\PICC-18\9.80\include\pic18f4550.h"
   961  0000                     CCPR2 equ 0FBBh ;# 
   962                           # 2662 "C:\Program Files (x86)\HI-TECH Software\PICC-18\9.80\include\pic18f4550.h"
   963  0000                     CCPR2L equ 0FBBh ;# 
   964                           # 2674 "C:\Program Files (x86)\HI-TECH Software\PICC-18\9.80\include\pic18f4550.h"
   965  0000                     CCPR2H equ 0FBCh ;# 
   966                           # 2686 "C:\Program Files (x86)\HI-TECH Software\PICC-18\9.80\include\pic18f4550.h"
   967  0000                     CCP1CON equ 0FBDh ;# 
   968                           # 2691 "C:\Program Files (x86)\HI-TECH Software\PICC-18\9.80\include\pic18f4550.h"
   969  0000                     ECCP1CON equ 0FBDh ;# 
   970                           # 2733 "C:\Program Files (x86)\HI-TECH Software\PICC-18\9.80\include\pic18f4550.h"
   971  0000                     CCPR1 equ 0FBEh ;# 
   972                           # 2745 "C:\Program Files (x86)\HI-TECH Software\PICC-18\9.80\include\pic18f4550.h"
   973  0000                     CCPR1L equ 0FBEh ;# 
   974                           # 2757 "C:\Program Files (x86)\HI-TECH Software\PICC-18\9.80\include\pic18f4550.h"
   975  0000                     CCPR1H equ 0FBFh ;# 
   976                           # 2769 "C:\Program Files (x86)\HI-TECH Software\PICC-18\9.80\include\pic18f4550.h"
   977  0000                     ADCON2 equ 0FC0h ;# 
   978                           # 2792 "C:\Program Files (x86)\HI-TECH Software\PICC-18\9.80\include\pic18f4550.h"
   979  0000                     ADCON1 equ 0FC1h ;# 
   980                           # 2825 "C:\Program Files (x86)\HI-TECH Software\PICC-18\9.80\include\pic18f4550.h"
   981  0000                     ADCON0 equ 0FC2h ;# 
   982                           # 2880 "C:\Program Files (x86)\HI-TECH Software\PICC-18\9.80\include\pic18f4550.h"
   983  0000                     ADRES equ 0FC3h ;# 
   984                           # 2892 "C:\Program Files (x86)\HI-TECH Software\PICC-18\9.80\include\pic18f4550.h"
   985  0000                     ADRESL equ 0FC3h ;# 
   986                           # 2904 "C:\Program Files (x86)\HI-TECH Software\PICC-18\9.80\include\pic18f4550.h"
   987  0000                     ADRESH equ 0FC4h ;# 
   988                           # 2916 "C:\Program Files (x86)\HI-TECH Software\PICC-18\9.80\include\pic18f4550.h"
   989  0000                     SSPCON2 equ 0FC5h ;# 
   990                           # 2935 "C:\Program Files (x86)\HI-TECH Software\PICC-18\9.80\include\pic18f4550.h"
   991  0000                     SSPCON1 equ 0FC6h ;# 
   992                           # 2957 "C:\Program Files (x86)\HI-TECH Software\PICC-18\9.80\include\pic18f4550.h"
   993  0000                     SSPSTAT equ 0FC7h ;# 
   994                           # 3071 "C:\Program Files (x86)\HI-TECH Software\PICC-18\9.80\include\pic18f4550.h"
   995  0000                     SSPADD equ 0FC8h ;# 
   996                           # 3083 "C:\Program Files (x86)\HI-TECH Software\PICC-18\9.80\include\pic18f4550.h"
   997  0000                     SSPBUF equ 0FC9h ;# 
   998                           # 3095 "C:\Program Files (x86)\HI-TECH Software\PICC-18\9.80\include\pic18f4550.h"
   999  0000                     T2CON equ 0FCAh ;# 
  1000                           # 3125 "C:\Program Files (x86)\HI-TECH Software\PICC-18\9.80\include\pic18f4550.h"
  1001  0000                     PR2 equ 0FCBh ;# 
  1002                           # 3130 "C:\Program Files (x86)\HI-TECH Software\PICC-18\9.80\include\pic18f4550.h"
  1003  0000                     MEMCON equ 0FCBh ;# 
  1004                           # 3148 "C:\Program Files (x86)\HI-TECH Software\PICC-18\9.80\include\pic18f4550.h"
  1005  0000                     TMR2 equ 0FCCh ;# 
  1006                           # 3160 "C:\Program Files (x86)\HI-TECH Software\PICC-18\9.80\include\pic18f4550.h"
  1007  0000                     T1CON equ 0FCDh ;# 
  1008                           # 3197 "C:\Program Files (x86)\HI-TECH Software\PICC-18\9.80\include\pic18f4550.h"
  1009  0000                     TMR1 equ 0FCEh ;# 
  1010                           # 3209 "C:\Program Files (x86)\HI-TECH Software\PICC-18\9.80\include\pic18f4550.h"
  1011  0000                     TMR1L equ 0FCEh ;# 
  1012                           # 3221 "C:\Program Files (x86)\HI-TECH Software\PICC-18\9.80\include\pic18f4550.h"
  1013  0000                     TMR1H equ 0FCFh ;# 
  1014                           # 3233 "C:\Program Files (x86)\HI-TECH Software\PICC-18\9.80\include\pic18f4550.h"
  1015  0000                     RCON equ 0FD0h ;# 
  1016                           # 3284 "C:\Program Files (x86)\HI-TECH Software\PICC-18\9.80\include\pic18f4550.h"
  1017  0000                     WDTCON equ 0FD1h ;# 
  1018                           # 3299 "C:\Program Files (x86)\HI-TECH Software\PICC-18\9.80\include\pic18f4550.h"
  1019  0000                     HLVDCON equ 0FD2h ;# 
  1020                           # 3304 "C:\Program Files (x86)\HI-TECH Software\PICC-18\9.80\include\pic18f4550.h"
  1021  0000                     LVDCON equ 0FD2h ;# 
  1022                           # 3374 "C:\Program Files (x86)\HI-TECH Software\PICC-18\9.80\include\pic18f4550.h"
  1023  0000                     OSCCON equ 0FD3h ;# 
  1024                           # 3399 "C:\Program Files (x86)\HI-TECH Software\PICC-18\9.80\include\pic18f4550.h"
  1025  0000                     T0CON equ 0FD5h ;# 
  1026                           # 3421 "C:\Program Files (x86)\HI-TECH Software\PICC-18\9.80\include\pic18f4550.h"
  1027  0000                     TMR0 equ 0FD6h ;# 
  1028                           # 3433 "C:\Program Files (x86)\HI-TECH Software\PICC-18\9.80\include\pic18f4550.h"
  1029  0000                     TMR0L equ 0FD6h ;# 
  1030                           # 3445 "C:\Program Files (x86)\HI-TECH Software\PICC-18\9.80\include\pic18f4550.h"
  1031  0000                     TMR0H equ 0FD7h ;# 
  1032                           # 3457 "C:\Program Files (x86)\HI-TECH Software\PICC-18\9.80\include\pic18f4550.h"
  1033  0000                     STATUS equ 0FD8h ;# 
  1034                           # 3488 "C:\Program Files (x86)\HI-TECH Software\PICC-18\9.80\include\pic18f4550.h"
  1035  0000                     FSR2 equ 0FD9h ;# 
  1036                           # 3500 "C:\Program Files (x86)\HI-TECH Software\PICC-18\9.80\include\pic18f4550.h"
  1037  0000                     FSR2L equ 0FD9h ;# 
  1038                           # 3512 "C:\Program Files (x86)\HI-TECH Software\PICC-18\9.80\include\pic18f4550.h"
  1039  0000                     FSR2H equ 0FDAh ;# 
  1040                           # 3524 "C:\Program Files (x86)\HI-TECH Software\PICC-18\9.80\include\pic18f4550.h"
  1041  0000                     PLUSW2 equ 0FDBh ;# 
  1042                           # 3536 "C:\Program Files (x86)\HI-TECH Software\PICC-18\9.80\include\pic18f4550.h"
  1043  0000                     PREINC2 equ 0FDCh ;# 
  1044                           # 3548 "C:\Program Files (x86)\HI-TECH Software\PICC-18\9.80\include\pic18f4550.h"
  1045  0000                     POSTDEC2 equ 0FDDh ;# 
  1046                           # 3560 "C:\Program Files (x86)\HI-TECH Software\PICC-18\9.80\include\pic18f4550.h"
  1047  0000                     POSTINC2 equ 0FDEh ;# 
  1048                           # 3572 "C:\Program Files (x86)\HI-TECH Software\PICC-18\9.80\include\pic18f4550.h"
  1049  0000                     INDF2 equ 0FDFh ;# 
  1050                           # 3584 "C:\Program Files (x86)\HI-TECH Software\PICC-18\9.80\include\pic18f4550.h"
  1051  0000                     BSR equ 0FE0h ;# 
  1052                           # 3596 "C:\Program Files (x86)\HI-TECH Software\PICC-18\9.80\include\pic18f4550.h"
  1053  0000                     FSR1 equ 0FE1h ;# 
  1054                           # 3608 "C:\Program Files (x86)\HI-TECH Software\PICC-18\9.80\include\pic18f4550.h"
  1055  0000                     FSR1L equ 0FE1h ;# 
  1056                           # 3620 "C:\Program Files (x86)\HI-TECH Software\PICC-18\9.80\include\pic18f4550.h"
  1057  0000                     FSR1H equ 0FE2h ;# 
  1058                           # 3632 "C:\Program Files (x86)\HI-TECH Software\PICC-18\9.80\include\pic18f4550.h"
  1059  0000                     PLUSW1 equ 0FE3h ;# 
  1060                           # 3644 "C:\Program Files (x86)\HI-TECH Software\PICC-18\9.80\include\pic18f4550.h"
  1061  0000                     PREINC1 equ 0FE4h ;# 
  1062                           # 3656 "C:\Program Files (x86)\HI-TECH Software\PICC-18\9.80\include\pic18f4550.h"
  1063  0000                     POSTDEC1 equ 0FE5h ;# 
  1064                           # 3668 "C:\Program Files (x86)\HI-TECH Software\PICC-18\9.80\include\pic18f4550.h"
  1065  0000                     POSTINC1 equ 0FE6h ;# 
  1066                           # 3680 "C:\Program Files (x86)\HI-TECH Software\PICC-18\9.80\include\pic18f4550.h"
  1067  0000                     INDF1 equ 0FE7h ;# 
  1068                           # 3692 "C:\Program Files (x86)\HI-TECH Software\PICC-18\9.80\include\pic18f4550.h"
  1069  0000                     WREG equ 0FE8h ;# 
  1070                           # 3704 "C:\Program Files (x86)\HI-TECH Software\PICC-18\9.80\include\pic18f4550.h"
  1071  0000                     FSR0 equ 0FE9h ;# 
  1072                           # 3716 "C:\Program Files (x86)\HI-TECH Software\PICC-18\9.80\include\pic18f4550.h"
  1073  0000                     FSR0L equ 0FE9h ;# 
  1074                           # 3728 "C:\Program Files (x86)\HI-TECH Software\PICC-18\9.80\include\pic18f4550.h"
  1075  0000                     FSR0H equ 0FEAh ;# 
  1076                           # 3740 "C:\Program Files (x86)\HI-TECH Software\PICC-18\9.80\include\pic18f4550.h"
  1077  0000                     PLUSW0 equ 0FEBh ;# 
  1078                           # 3752 "C:\Program Files (x86)\HI-TECH Software\PICC-18\9.80\include\pic18f4550.h"
  1079  0000                     PREINC0 equ 0FECh ;# 
  1080                           # 3764 "C:\Program Files (x86)\HI-TECH Software\PICC-18\9.80\include\pic18f4550.h"
  1081  0000                     POSTDEC0 equ 0FEDh ;# 
  1082                           # 3776 "C:\Program Files (x86)\HI-TECH Software\PICC-18\9.80\include\pic18f4550.h"
  1083  0000                     POSTINC0 equ 0FEEh ;# 
  1084                           # 3788 "C:\Program Files (x86)\HI-TECH Software\PICC-18\9.80\include\pic18f4550.h"
  1085  0000                     INDF0 equ 0FEFh ;# 
  1086                           # 3800 "C:\Program Files (x86)\HI-TECH Software\PICC-18\9.80\include\pic18f4550.h"
  1087  0000                     INTCON3 equ 0FF0h ;# 
  1088                           # 3829 "C:\Program Files (x86)\HI-TECH Software\PICC-18\9.80\include\pic18f4550.h"
  1089  0000                     INTCON2 equ 0FF1h ;# 
  1090                           # 3858 "C:\Program Files (x86)\HI-TECH Software\PICC-18\9.80\include\pic18f4550.h"
  1091  0000                     INTCON equ 0FF2h ;# 
  1092                           # 3922 "C:\Program Files (x86)\HI-TECH Software\PICC-18\9.80\include\pic18f4550.h"
  1093  0000                     PROD equ 0FF3h ;# 
  1094                           # 3934 "C:\Program Files (x86)\HI-TECH Software\PICC-18\9.80\include\pic18f4550.h"
  1095  0000                     PRODL equ 0FF3h ;# 
  1096                           # 3946 "C:\Program Files (x86)\HI-TECH Software\PICC-18\9.80\include\pic18f4550.h"
  1097  0000                     PRODH equ 0FF4h ;# 
  1098                           # 3958 "C:\Program Files (x86)\HI-TECH Software\PICC-18\9.80\include\pic18f4550.h"
  1099  0000                     TABLAT equ 0FF5h ;# 
  1100                           # 3970 "C:\Program Files (x86)\HI-TECH Software\PICC-18\9.80\include\pic18f4550.h"
  1101  0000                     TBLPTR equ 0FF6h ;# 
  1102                           # 3982 "C:\Program Files (x86)\HI-TECH Software\PICC-18\9.80\include\pic18f4550.h"
  1103  0000                     TBLPTRL equ 0FF6h ;# 
  1104                           # 3994 "C:\Program Files (x86)\HI-TECH Software\PICC-18\9.80\include\pic18f4550.h"
  1105  0000                     TBLPTRH equ 0FF7h ;# 
  1106                           # 4006 "C:\Program Files (x86)\HI-TECH Software\PICC-18\9.80\include\pic18f4550.h"
  1107  0000                     TBLPTRU equ 0FF8h ;# 
  1108                           # 4018 "C:\Program Files (x86)\HI-TECH Software\PICC-18\9.80\include\pic18f4550.h"
  1109  0000                     PCLAT equ 0FF9h ;# 
  1110                           # 4023 "C:\Program Files (x86)\HI-TECH Software\PICC-18\9.80\include\pic18f4550.h"
  1111  0000                     PC equ 0FF9h ;# 
  1112                           # 4041 "C:\Program Files (x86)\HI-TECH Software\PICC-18\9.80\include\pic18f4550.h"
  1113  0000                     PCL equ 0FF9h ;# 
  1114                           # 4053 "C:\Program Files (x86)\HI-TECH Software\PICC-18\9.80\include\pic18f4550.h"
  1115  0000                     PCLATH equ 0FFAh ;# 
  1116                           # 4065 "C:\Program Files (x86)\HI-TECH Software\PICC-18\9.80\include\pic18f4550.h"
  1117  0000                     PCLATU equ 0FFBh ;# 
  1118                           # 4077 "C:\Program Files (x86)\HI-TECH Software\PICC-18\9.80\include\pic18f4550.h"
  1119  0000                     STKPTR equ 0FFCh ;# 
  1120                           # 4103 "C:\Program Files (x86)\HI-TECH Software\PICC-18\9.80\include\pic18f4550.h"
  1121  0000                     TOS equ 0FFDh ;# 
  1122                           # 4115 "C:\Program Files (x86)\HI-TECH Software\PICC-18\9.80\include\pic18f4550.h"
  1123  0000                     TOSL equ 0FFDh ;# 
  1124                           # 4127 "C:\Program Files (x86)\HI-TECH Software\PICC-18\9.80\include\pic18f4550.h"
  1125  0000                     TOSH equ 0FFEh ;# 
  1126                           # 4139 "C:\Program Files (x86)\HI-TECH Software\PICC-18\9.80\include\pic18f4550.h"
  1127  0000                     TOSU equ 0FFFh ;# 
  1128                           # 19 "C:\Program Files (x86)\HI-TECH Software\PICC-18\9.80\include\pic18f4550.h"
  1129  0000                     SPPDATA equ 0F62h ;# 
  1130                           # 31 "C:\Program Files (x86)\HI-TECH Software\PICC-18\9.80\include\pic18f4550.h"
  1131  0000                     SPPCFG equ 0F63h ;# 
  1132                           # 55 "C:\Program Files (x86)\HI-TECH Software\PICC-18\9.80\include\pic18f4550.h"
  1133  0000                     SPPEPS equ 0F64h ;# 
  1134                           # 81 "C:\Program Files (x86)\HI-TECH Software\PICC-18\9.80\include\pic18f4550.h"
  1135  0000                     SPPCON equ 0F65h ;# 
  1136                           # 94 "C:\Program Files (x86)\HI-TECH Software\PICC-18\9.80\include\pic18f4550.h"
  1137  0000                     UFRM equ 0F66h ;# 
  1138                           # 106 "C:\Program Files (x86)\HI-TECH Software\PICC-18\9.80\include\pic18f4550.h"
  1139  0000                     UFRML equ 0F66h ;# 
  1140                           # 131 "C:\Program Files (x86)\HI-TECH Software\PICC-18\9.80\include\pic18f4550.h"
  1141  0000                     UFRMH equ 0F67h ;# 
  1142                           # 148 "C:\Program Files (x86)\HI-TECH Software\PICC-18\9.80\include\pic18f4550.h"
  1143  0000                     UIR equ 0F68h ;# 
  1144                           # 166 "C:\Program Files (x86)\HI-TECH Software\PICC-18\9.80\include\pic18f4550.h"
  1145  0000                     UIE equ 0F69h ;# 
  1146                           # 184 "C:\Program Files (x86)\HI-TECH Software\PICC-18\9.80\include\pic18f4550.h"
  1147  0000                     UEIR equ 0F6Ah ;# 
  1148                           # 202 "C:\Program Files (x86)\HI-TECH Software\PICC-18\9.80\include\pic18f4550.h"
  1149  0000                     UEIE equ 0F6Bh ;# 
  1150                           # 220 "C:\Program Files (x86)\HI-TECH Software\PICC-18\9.80\include\pic18f4550.h"
  1151  0000                     USTAT equ 0F6Ch ;# 
  1152                           # 242 "C:\Program Files (x86)\HI-TECH Software\PICC-18\9.80\include\pic18f4550.h"
  1153  0000                     UCON equ 0F6Dh ;# 
  1154                           # 260 "C:\Program Files (x86)\HI-TECH Software\PICC-18\9.80\include\pic18f4550.h"
  1155  0000                     UADDR equ 0F6Eh ;# 
  1156                           # 281 "C:\Program Files (x86)\HI-TECH Software\PICC-18\9.80\include\pic18f4550.h"
  1157  0000                     UCFG equ 0F6Fh ;# 
  1158                           # 310 "C:\Program Files (x86)\HI-TECH Software\PICC-18\9.80\include\pic18f4550.h"
  1159  0000                     UEP0 equ 0F70h ;# 
  1160                           # 364 "C:\Program Files (x86)\HI-TECH Software\PICC-18\9.80\include\pic18f4550.h"
  1161  0000                     UEP1 equ 0F71h ;# 
  1162                           # 418 "C:\Program Files (x86)\HI-TECH Software\PICC-18\9.80\include\pic18f4550.h"
  1163  0000                     UEP2 equ 0F72h ;# 
  1164                           # 472 "C:\Program Files (x86)\HI-TECH Software\PICC-18\9.80\include\pic18f4550.h"
  1165  0000                     UEP3 equ 0F73h ;# 
  1166                           # 526 "C:\Program Files (x86)\HI-TECH Software\PICC-18\9.80\include\pic18f4550.h"
  1167  0000                     UEP4 equ 0F74h ;# 
  1168                           # 580 "C:\Program Files (x86)\HI-TECH Software\PICC-18\9.80\include\pic18f4550.h"
  1169  0000                     UEP5 equ 0F75h ;# 
  1170                           # 634 "C:\Program Files (x86)\HI-TECH Software\PICC-18\9.80\include\pic18f4550.h"
  1171  0000                     UEP6 equ 0F76h ;# 
  1172                           # 688 "C:\Program Files (x86)\HI-TECH Software\PICC-18\9.80\include\pic18f4550.h"
  1173  0000                     UEP7 equ 0F77h ;# 
  1174                           # 742 "C:\Program Files (x86)\HI-TECH Software\PICC-18\9.80\include\pic18f4550.h"
  1175  0000                     UEP8 equ 0F78h ;# 
  1176                           # 777 "C:\Program Files (x86)\HI-TECH Software\PICC-18\9.80\include\pic18f4550.h"
  1177  0000                     UEP9 equ 0F79h ;# 
  1178                           # 812 "C:\Program Files (x86)\HI-TECH Software\PICC-18\9.80\include\pic18f4550.h"
  1179  0000                     UEP10 equ 0F7Ah ;# 
  1180                           # 847 "C:\Program Files (x86)\HI-TECH Software\PICC-18\9.80\include\pic18f4550.h"
  1181  0000                     UEP11 equ 0F7Bh ;# 
  1182                           # 882 "C:\Program Files (x86)\HI-TECH Software\PICC-18\9.80\include\pic18f4550.h"
  1183  0000                     UEP12 equ 0F7Ch ;# 
  1184                           # 917 "C:\Program Files (x86)\HI-TECH Software\PICC-18\9.80\include\pic18f4550.h"
  1185  0000                     UEP13 equ 0F7Dh ;# 
  1186                           # 952 "C:\Program Files (x86)\HI-TECH Software\PICC-18\9.80\include\pic18f4550.h"
  1187  0000                     UEP14 equ 0F7Eh ;# 
  1188                           # 987 "C:\Program Files (x86)\HI-TECH Software\PICC-18\9.80\include\pic18f4550.h"
  1189  0000                     UEP15 equ 0F7Fh ;# 
  1190                           # 1022 "C:\Program Files (x86)\HI-TECH Software\PICC-18\9.80\include\pic18f4550.h"
  1191  0000                     PORTA equ 0F80h ;# 
  1192                           # 1074 "C:\Program Files (x86)\HI-TECH Software\PICC-18\9.80\include\pic18f4550.h"
  1193  0000                     PORTB equ 0F81h ;# 
  1194                           # 1109 "C:\Program Files (x86)\HI-TECH Software\PICC-18\9.80\include\pic18f4550.h"
  1195  0000                     PORTC equ 0F82h ;# 
  1196                           # 1163 "C:\Program Files (x86)\HI-TECH Software\PICC-18\9.80\include\pic18f4550.h"
  1197  0000                     PORTD equ 0F83h ;# 
  1198                           # 1199 "C:\Program Files (x86)\HI-TECH Software\PICC-18\9.80\include\pic18f4550.h"
  1199  0000                     PORTE equ 0F84h ;# 
  1200                           # 1306 "C:\Program Files (x86)\HI-TECH Software\PICC-18\9.80\include\pic18f4550.h"
  1201  0000                     LATA equ 0F89h ;# 
  1202                           # 1362 "C:\Program Files (x86)\HI-TECH Software\PICC-18\9.80\include\pic18f4550.h"
  1203  0000                     LATB equ 0F8Ah ;# 
  1204                           # 1415 "C:\Program Files (x86)\HI-TECH Software\PICC-18\9.80\include\pic18f4550.h"
  1205  0000                     LATC equ 0F8Bh ;# 
  1206                           # 1466 "C:\Program Files (x86)\HI-TECH Software\PICC-18\9.80\include\pic18f4550.h"
  1207  0000                     LATD equ 0F8Ch ;# 
  1208                           # 1519 "C:\Program Files (x86)\HI-TECH Software\PICC-18\9.80\include\pic18f4550.h"
  1209  0000                     LATE equ 0F8Dh ;# 
  1210                           # 1567 "C:\Program Files (x86)\HI-TECH Software\PICC-18\9.80\include\pic18f4550.h"
  1211  0000                     TRISA equ 0F92h ;# 
  1212                           # 1572 "C:\Program Files (x86)\HI-TECH Software\PICC-18\9.80\include\pic18f4550.h"
  1213  0000                     DDRA equ 0F92h ;# 
  1214                           # 1626 "C:\Program Files (x86)\HI-TECH Software\PICC-18\9.80\include\pic18f4550.h"
  1215  0000                     TRISB equ 0F93h ;# 
  1216                           # 1631 "C:\Program Files (x86)\HI-TECH Software\PICC-18\9.80\include\pic18f4550.h"
  1217  0000                     DDRB equ 0F93h ;# 
  1218                           # 1689 "C:\Program Files (x86)\HI-TECH Software\PICC-18\9.80\include\pic18f4550.h"
  1219  0000                     TRISC equ 0F94h ;# 
  1220                           # 1694 "C:\Program Files (x86)\HI-TECH Software\PICC-18\9.80\include\pic18f4550.h"
  1221  0000                     DDRC equ 0F94h ;# 
  1222                           # 1752 "C:\Program Files (x86)\HI-TECH Software\PICC-18\9.80\include\pic18f4550.h"
  1223  0000                     TRISD equ 0F95h ;# 
  1224                           # 1757 "C:\Program Files (x86)\HI-TECH Software\PICC-18\9.80\include\pic18f4550.h"
  1225  0000                     DDRD equ 0F95h ;# 
  1226                           # 1815 "C:\Program Files (x86)\HI-TECH Software\PICC-18\9.80\include\pic18f4550.h"
  1227  0000                     TRISE equ 0F96h ;# 
  1228                           # 1820 "C:\Program Files (x86)\HI-TECH Software\PICC-18\9.80\include\pic18f4550.h"
  1229  0000                     DDRE equ 0F96h ;# 
  1230                           # 1858 "C:\Program Files (x86)\HI-TECH Software\PICC-18\9.80\include\pic18f4550.h"
  1231  0000                     OSCTUNE equ 0F9Bh ;# 
  1232                           # 1879 "C:\Program Files (x86)\HI-TECH Software\PICC-18\9.80\include\pic18f4550.h"
  1233  0000                     PIE1 equ 0F9Dh ;# 
  1234                           # 1910 "C:\Program Files (x86)\HI-TECH Software\PICC-18\9.80\include\pic18f4550.h"
  1235  0000                     PIR1 equ 0F9Eh ;# 
  1236                           # 1941 "C:\Program Files (x86)\HI-TECH Software\PICC-18\9.80\include\pic18f4550.h"
  1237  0000                     IPR1 equ 0F9Fh ;# 
  1238                           # 1972 "C:\Program Files (x86)\HI-TECH Software\PICC-18\9.80\include\pic18f4550.h"
  1239  0000                     PIE2 equ 0FA0h ;# 
  1240                           # 1995 "C:\Program Files (x86)\HI-TECH Software\PICC-18\9.80\include\pic18f4550.h"
  1241  0000                     PIR2 equ 0FA1h ;# 
  1242                           # 2018 "C:\Program Files (x86)\HI-TECH Software\PICC-18\9.80\include\pic18f4550.h"
  1243  0000                     IPR2 equ 0FA2h ;# 
  1244                           # 2041 "C:\Program Files (x86)\HI-TECH Software\PICC-18\9.80\include\pic18f4550.h"
  1245  0000                     EECON1 equ 0FA6h ;# 
  1246                           # 2064 "C:\Program Files (x86)\HI-TECH Software\PICC-18\9.80\include\pic18f4550.h"
  1247  0000                     EECON2 equ 0FA7h ;# 
  1248                           # 2076 "C:\Program Files (x86)\HI-TECH Software\PICC-18\9.80\include\pic18f4550.h"
  1249  0000                     EEDATA equ 0FA8h ;# 
  1250                           # 2088 "C:\Program Files (x86)\HI-TECH Software\PICC-18\9.80\include\pic18f4550.h"
  1251  0000                     EEADR equ 0FA9h ;# 
  1252                           # 2100 "C:\Program Files (x86)\HI-TECH Software\PICC-18\9.80\include\pic18f4550.h"
  1253  0000                     RCSTA equ 0FABh ;# 
  1254                           # 2105 "C:\Program Files (x86)\HI-TECH Software\PICC-18\9.80\include\pic18f4550.h"
  1255  0000                     RCSTA1 equ 0FABh ;# 
  1256                           # 2153 "C:\Program Files (x86)\HI-TECH Software\PICC-18\9.80\include\pic18f4550.h"
  1257  0000                     TXSTA equ 0FACh ;# 
  1258                           # 2158 "C:\Program Files (x86)\HI-TECH Software\PICC-18\9.80\include\pic18f4550.h"
  1259  0000                     TXSTA1 equ 0FACh ;# 
  1260                           # 2252 "C:\Program Files (x86)\HI-TECH Software\PICC-18\9.80\include\pic18f4550.h"
  1261  0000                     TXREG equ 0FADh ;# 
  1262                           # 2257 "C:\Program Files (x86)\HI-TECH Software\PICC-18\9.80\include\pic18f4550.h"
  1263  0000                     TXREG1 equ 0FADh ;# 
  1264                           # 2275 "C:\Program Files (x86)\HI-TECH Software\PICC-18\9.80\include\pic18f4550.h"
  1265  0000                     RCREG equ 0FAEh ;# 
  1266                           # 2280 "C:\Program Files (x86)\HI-TECH Software\PICC-18\9.80\include\pic18f4550.h"
  1267  0000                     RCREG1 equ 0FAEh ;# 
  1268                           # 2298 "C:\Program Files (x86)\HI-TECH Software\PICC-18\9.80\include\pic18f4550.h"
  1269  0000                     SPBRG equ 0FAFh ;# 
  1270                           # 2303 "C:\Program Files (x86)\HI-TECH Software\PICC-18\9.80\include\pic18f4550.h"
  1271  0000                     SPBRG1 equ 0FAFh ;# 
  1272                           # 2321 "C:\Program Files (x86)\HI-TECH Software\PICC-18\9.80\include\pic18f4550.h"
  1273  0000                     SPBRGH equ 0FB0h ;# 
  1274                           # 2333 "C:\Program Files (x86)\HI-TECH Software\PICC-18\9.80\include\pic18f4550.h"
  1275  0000                     T3CON equ 0FB1h ;# 
  1276                           # 2378 "C:\Program Files (x86)\HI-TECH Software\PICC-18\9.80\include\pic18f4550.h"
  1277  0000                     TMR3 equ 0FB2h ;# 
  1278                           # 2390 "C:\Program Files (x86)\HI-TECH Software\PICC-18\9.80\include\pic18f4550.h"
  1279  0000                     TMR3L equ 0FB2h ;# 
  1280                           # 2402 "C:\Program Files (x86)\HI-TECH Software\PICC-18\9.80\include\pic18f4550.h"
  1281  0000                     TMR3H equ 0FB3h ;# 
  1282                           # 2414 "C:\Program Files (x86)\HI-TECH Software\PICC-18\9.80\include\pic18f4550.h"
  1283  0000                     CMCON equ 0FB4h ;# 
  1284                           # 2447 "C:\Program Files (x86)\HI-TECH Software\PICC-18\9.80\include\pic18f4550.h"
  1285  0000                     CVRCON equ 0FB5h ;# 
  1286                           # 2474 "C:\Program Files (x86)\HI-TECH Software\PICC-18\9.80\include\pic18f4550.h"
  1287  0000                     ECCP1AS equ 0FB6h ;# 
  1288                           # 2479 "C:\Program Files (x86)\HI-TECH Software\PICC-18\9.80\include\pic18f4550.h"
  1289  0000                     CCP1AS equ 0FB6h ;# 
  1290                           # 2521 "C:\Program Files (x86)\HI-TECH Software\PICC-18\9.80\include\pic18f4550.h"
  1291  0000                     ECCP1DEL equ 0FB7h ;# 
  1292                           # 2526 "C:\Program Files (x86)\HI-TECH Software\PICC-18\9.80\include\pic18f4550.h"
  1293  0000                     CCP1DEL equ 0FB7h ;# 
  1294                           # 2564 "C:\Program Files (x86)\HI-TECH Software\PICC-18\9.80\include\pic18f4550.h"
  1295  0000                     BAUDCON equ 0FB8h ;# 
  1296                           # 2569 "C:\Program Files (x86)\HI-TECH Software\PICC-18\9.80\include\pic18f4550.h"
  1297  0000                     BAUDCTL equ 0FB8h ;# 
  1298                           # 2629 "C:\Program Files (x86)\HI-TECH Software\PICC-18\9.80\include\pic18f4550.h"
  1299  0000                     CCP2CON equ 0FBAh ;# 
  1300                           # 2650 "C:\Program Files (x86)\HI-TECH Software\PICC-18\9.80\include\pic18f4550.h"
  1301  0000                     CCPR2 equ 0FBBh ;# 
  1302                           # 2662 "C:\Program Files (x86)\HI-TECH Software\PICC-18\9.80\include\pic18f4550.h"
  1303  0000                     CCPR2L equ 0FBBh ;# 
  1304                           # 2674 "C:\Program Files (x86)\HI-TECH Software\PICC-18\9.80\include\pic18f4550.h"
  1305  0000                     CCPR2H equ 0FBCh ;# 
  1306                           # 2686 "C:\Program Files (x86)\HI-TECH Software\PICC-18\9.80\include\pic18f4550.h"
  1307  0000                     CCP1CON equ 0FBDh ;# 
  1308                           # 2691 "C:\Program Files (x86)\HI-TECH Software\PICC-18\9.80\include\pic18f4550.h"
  1309  0000                     ECCP1CON equ 0FBDh ;# 
  1310                           # 2733 "C:\Program Files (x86)\HI-TECH Software\PICC-18\9.80\include\pic18f4550.h"
  1311  0000                     CCPR1 equ 0FBEh ;# 
  1312                           # 2745 "C:\Program Files (x86)\HI-TECH Software\PICC-18\9.80\include\pic18f4550.h"
  1313  0000                     CCPR1L equ 0FBEh ;# 
  1314                           # 2757 "C:\Program Files (x86)\HI-TECH Software\PICC-18\9.80\include\pic18f4550.h"
  1315  0000                     CCPR1H equ 0FBFh ;# 
  1316                           # 2769 "C:\Program Files (x86)\HI-TECH Software\PICC-18\9.80\include\pic18f4550.h"
  1317  0000                     ADCON2 equ 0FC0h ;# 
  1318                           # 2792 "C:\Program Files (x86)\HI-TECH Software\PICC-18\9.80\include\pic18f4550.h"
  1319  0000                     ADCON1 equ 0FC1h ;# 
  1320                           # 2825 "C:\Program Files (x86)\HI-TECH Software\PICC-18\9.80\include\pic18f4550.h"
  1321  0000                     ADCON0 equ 0FC2h ;# 
  1322                           # 2880 "C:\Program Files (x86)\HI-TECH Software\PICC-18\9.80\include\pic18f4550.h"
  1323  0000                     ADRES equ 0FC3h ;# 
  1324                           # 2892 "C:\Program Files (x86)\HI-TECH Software\PICC-18\9.80\include\pic18f4550.h"
  1325  0000                     ADRESL equ 0FC3h ;# 
  1326                           # 2904 "C:\Program Files (x86)\HI-TECH Software\PICC-18\9.80\include\pic18f4550.h"
  1327  0000                     ADRESH equ 0FC4h ;# 
  1328                           # 2916 "C:\Program Files (x86)\HI-TECH Software\PICC-18\9.80\include\pic18f4550.h"
  1329  0000                     SSPCON2 equ 0FC5h ;# 
  1330                           # 2935 "C:\Program Files (x86)\HI-TECH Software\PICC-18\9.80\include\pic18f4550.h"
  1331  0000                     SSPCON1 equ 0FC6h ;# 
  1332                           # 2957 "C:\Program Files (x86)\HI-TECH Software\PICC-18\9.80\include\pic18f4550.h"
  1333  0000                     SSPSTAT equ 0FC7h ;# 
  1334                           # 3071 "C:\Program Files (x86)\HI-TECH Software\PICC-18\9.80\include\pic18f4550.h"
  1335  0000                     SSPADD equ 0FC8h ;# 
  1336                           # 3083 "C:\Program Files (x86)\HI-TECH Software\PICC-18\9.80\include\pic18f4550.h"
  1337  0000                     SSPBUF equ 0FC9h ;# 
  1338                           # 3095 "C:\Program Files (x86)\HI-TECH Software\PICC-18\9.80\include\pic18f4550.h"
  1339  0000                     T2CON equ 0FCAh ;# 
  1340                           # 3125 "C:\Program Files (x86)\HI-TECH Software\PICC-18\9.80\include\pic18f4550.h"
  1341  0000                     PR2 equ 0FCBh ;# 
  1342                           # 3130 "C:\Program Files (x86)\HI-TECH Software\PICC-18\9.80\include\pic18f4550.h"
  1343  0000                     MEMCON equ 0FCBh ;# 
  1344                           # 3148 "C:\Program Files (x86)\HI-TECH Software\PICC-18\9.80\include\pic18f4550.h"
  1345  0000                     TMR2 equ 0FCCh ;# 
  1346                           # 3160 "C:\Program Files (x86)\HI-TECH Software\PICC-18\9.80\include\pic18f4550.h"
  1347  0000                     T1CON equ 0FCDh ;# 
  1348                           # 3197 "C:\Program Files (x86)\HI-TECH Software\PICC-18\9.80\include\pic18f4550.h"
  1349  0000                     TMR1 equ 0FCEh ;# 
  1350                           # 3209 "C:\Program Files (x86)\HI-TECH Software\PICC-18\9.80\include\pic18f4550.h"
  1351  0000                     TMR1L equ 0FCEh ;# 
  1352                           # 3221 "C:\Program Files (x86)\HI-TECH Software\PICC-18\9.80\include\pic18f4550.h"
  1353  0000                     TMR1H equ 0FCFh ;# 
  1354                           # 3233 "C:\Program Files (x86)\HI-TECH Software\PICC-18\9.80\include\pic18f4550.h"
  1355  0000                     RCON equ 0FD0h ;# 
  1356                           # 3284 "C:\Program Files (x86)\HI-TECH Software\PICC-18\9.80\include\pic18f4550.h"
  1357  0000                     WDTCON equ 0FD1h ;# 
  1358                           # 3299 "C:\Program Files (x86)\HI-TECH Software\PICC-18\9.80\include\pic18f4550.h"
  1359  0000                     HLVDCON equ 0FD2h ;# 
  1360                           # 3304 "C:\Program Files (x86)\HI-TECH Software\PICC-18\9.80\include\pic18f4550.h"
  1361  0000                     LVDCON equ 0FD2h ;# 
  1362                           # 3374 "C:\Program Files (x86)\HI-TECH Software\PICC-18\9.80\include\pic18f4550.h"
  1363  0000                     OSCCON equ 0FD3h ;# 
  1364                           # 3399 "C:\Program Files (x86)\HI-TECH Software\PICC-18\9.80\include\pic18f4550.h"
  1365  0000                     T0CON equ 0FD5h ;# 
  1366                           # 3421 "C:\Program Files (x86)\HI-TECH Software\PICC-18\9.80\include\pic18f4550.h"
  1367  0000                     TMR0 equ 0FD6h ;# 
  1368                           # 3433 "C:\Program Files (x86)\HI-TECH Software\PICC-18\9.80\include\pic18f4550.h"
  1369  0000                     TMR0L equ 0FD6h ;# 
  1370                           # 3445 "C:\Program Files (x86)\HI-TECH Software\PICC-18\9.80\include\pic18f4550.h"
  1371  0000                     TMR0H equ 0FD7h ;# 
  1372                           # 3457 "C:\Program Files (x86)\HI-TECH Software\PICC-18\9.80\include\pic18f4550.h"
  1373  0000                     STATUS equ 0FD8h ;# 
  1374                           # 3488 "C:\Program Files (x86)\HI-TECH Software\PICC-18\9.80\include\pic18f4550.h"
  1375  0000                     FSR2 equ 0FD9h ;# 
  1376                           # 3500 "C:\Program Files (x86)\HI-TECH Software\PICC-18\9.80\include\pic18f4550.h"
  1377  0000                     FSR2L equ 0FD9h ;# 
  1378                           # 3512 "C:\Program Files (x86)\HI-TECH Software\PICC-18\9.80\include\pic18f4550.h"
  1379  0000                     FSR2H equ 0FDAh ;# 
  1380                           # 3524 "C:\Program Files (x86)\HI-TECH Software\PICC-18\9.80\include\pic18f4550.h"
  1381  0000                     PLUSW2 equ 0FDBh ;# 
  1382                           # 3536 "C:\Program Files (x86)\HI-TECH Software\PICC-18\9.80\include\pic18f4550.h"
  1383  0000                     PREINC2 equ 0FDCh ;# 
  1384                           # 3548 "C:\Program Files (x86)\HI-TECH Software\PICC-18\9.80\include\pic18f4550.h"
  1385  0000                     POSTDEC2 equ 0FDDh ;# 
  1386                           # 3560 "C:\Program Files (x86)\HI-TECH Software\PICC-18\9.80\include\pic18f4550.h"
  1387  0000                     POSTINC2 equ 0FDEh ;# 
  1388                           # 3572 "C:\Program Files (x86)\HI-TECH Software\PICC-18\9.80\include\pic18f4550.h"
  1389  0000                     INDF2 equ 0FDFh ;# 
  1390                           # 3584 "C:\Program Files (x86)\HI-TECH Software\PICC-18\9.80\include\pic18f4550.h"
  1391  0000                     BSR equ 0FE0h ;# 
  1392                           # 3596 "C:\Program Files (x86)\HI-TECH Software\PICC-18\9.80\include\pic18f4550.h"
  1393  0000                     FSR1 equ 0FE1h ;# 
  1394                           # 3608 "C:\Program Files (x86)\HI-TECH Software\PICC-18\9.80\include\pic18f4550.h"
  1395  0000                     FSR1L equ 0FE1h ;# 
  1396                           # 3620 "C:\Program Files (x86)\HI-TECH Software\PICC-18\9.80\include\pic18f4550.h"
  1397  0000                     FSR1H equ 0FE2h ;# 
  1398                           # 3632 "C:\Program Files (x86)\HI-TECH Software\PICC-18\9.80\include\pic18f4550.h"
  1399  0000                     PLUSW1 equ 0FE3h ;# 
  1400                           # 3644 "C:\Program Files (x86)\HI-TECH Software\PICC-18\9.80\include\pic18f4550.h"
  1401  0000                     PREINC1 equ 0FE4h ;# 
  1402                           # 3656 "C:\Program Files (x86)\HI-TECH Software\PICC-18\9.80\include\pic18f4550.h"
  1403  0000                     POSTDEC1 equ 0FE5h ;# 
  1404                           # 3668 "C:\Program Files (x86)\HI-TECH Software\PICC-18\9.80\include\pic18f4550.h"
  1405  0000                     POSTINC1 equ 0FE6h ;# 
  1406                           # 3680 "C:\Program Files (x86)\HI-TECH Software\PICC-18\9.80\include\pic18f4550.h"
  1407  0000                     INDF1 equ 0FE7h ;# 
  1408                           # 3692 "C:\Program Files (x86)\HI-TECH Software\PICC-18\9.80\include\pic18f4550.h"
  1409  0000                     WREG equ 0FE8h ;# 
  1410                           # 3704 "C:\Program Files (x86)\HI-TECH Software\PICC-18\9.80\include\pic18f4550.h"
  1411  0000                     FSR0 equ 0FE9h ;# 
  1412                           # 3716 "C:\Program Files (x86)\HI-TECH Software\PICC-18\9.80\include\pic18f4550.h"
  1413  0000                     FSR0L equ 0FE9h ;# 
  1414                           # 3728 "C:\Program Files (x86)\HI-TECH Software\PICC-18\9.80\include\pic18f4550.h"
  1415  0000                     FSR0H equ 0FEAh ;# 
  1416                           # 3740 "C:\Program Files (x86)\HI-TECH Software\PICC-18\9.80\include\pic18f4550.h"
  1417  0000                     PLUSW0 equ 0FEBh ;# 
  1418                           # 3752 "C:\Program Files (x86)\HI-TECH Software\PICC-18\9.80\include\pic18f4550.h"
  1419  0000                     PREINC0 equ 0FECh ;# 
  1420                           # 3764 "C:\Program Files (x86)\HI-TECH Software\PICC-18\9.80\include\pic18f4550.h"
  1421  0000                     POSTDEC0 equ 0FEDh ;# 
  1422                           # 3776 "C:\Program Files (x86)\HI-TECH Software\PICC-18\9.80\include\pic18f4550.h"
  1423  0000                     POSTINC0 equ 0FEEh ;# 
  1424                           # 3788 "C:\Program Files (x86)\HI-TECH Software\PICC-18\9.80\include\pic18f4550.h"
  1425  0000                     INDF0 equ 0FEFh ;# 
  1426                           # 3800 "C:\Program Files (x86)\HI-TECH Software\PICC-18\9.80\include\pic18f4550.h"
  1427  0000                     INTCON3 equ 0FF0h ;# 
  1428                           # 3829 "C:\Program Files (x86)\HI-TECH Software\PICC-18\9.80\include\pic18f4550.h"
  1429  0000                     INTCON2 equ 0FF1h ;# 
  1430                           # 3858 "C:\Program Files (x86)\HI-TECH Software\PICC-18\9.80\include\pic18f4550.h"
  1431  0000                     INTCON equ 0FF2h ;# 
  1432                           # 3922 "C:\Program Files (x86)\HI-TECH Software\PICC-18\9.80\include\pic18f4550.h"
  1433  0000                     PROD equ 0FF3h ;# 
  1434                           # 3934 "C:\Program Files (x86)\HI-TECH Software\PICC-18\9.80\include\pic18f4550.h"
  1435  0000                     PRODL equ 0FF3h ;# 
  1436                           # 3946 "C:\Program Files (x86)\HI-TECH Software\PICC-18\9.80\include\pic18f4550.h"
  1437  0000                     PRODH equ 0FF4h ;# 
  1438                           # 3958 "C:\Program Files (x86)\HI-TECH Software\PICC-18\9.80\include\pic18f4550.h"
  1439  0000                     TABLAT equ 0FF5h ;# 
  1440                           # 3970 "C:\Program Files (x86)\HI-TECH Software\PICC-18\9.80\include\pic18f4550.h"
  1441  0000                     TBLPTR equ 0FF6h ;# 
  1442                           # 3982 "C:\Program Files (x86)\HI-TECH Software\PICC-18\9.80\include\pic18f4550.h"
  1443  0000                     TBLPTRL equ 0FF6h ;# 
  1444                           # 3994 "C:\Program Files (x86)\HI-TECH Software\PICC-18\9.80\include\pic18f4550.h"
  1445  0000                     TBLPTRH equ 0FF7h ;# 
  1446                           # 4006 "C:\Program Files (x86)\HI-TECH Software\PICC-18\9.80\include\pic18f4550.h"
  1447  0000                     TBLPTRU equ 0FF8h ;# 
  1448                           # 4018 "C:\Program Files (x86)\HI-TECH Software\PICC-18\9.80\include\pic18f4550.h"
  1449  0000                     PCLAT equ 0FF9h ;# 
  1450                           # 4023 "C:\Program Files (x86)\HI-TECH Software\PICC-18\9.80\include\pic18f4550.h"
  1451  0000                     PC equ 0FF9h ;# 
  1452                           # 4041 "C:\Program Files (x86)\HI-TECH Software\PICC-18\9.80\include\pic18f4550.h"
  1453  0000                     PCL equ 0FF9h ;# 
  1454                           # 4053 "C:\Program Files (x86)\HI-TECH Software\PICC-18\9.80\include\pic18f4550.h"
  1455  0000                     PCLATH equ 0FFAh ;# 
  1456                           # 4065 "C:\Program Files (x86)\HI-TECH Software\PICC-18\9.80\include\pic18f4550.h"
  1457  0000                     PCLATU equ 0FFBh ;# 
  1458                           # 4077 "C:\Program Files (x86)\HI-TECH Software\PICC-18\9.80\include\pic18f4550.h"
  1459  0000                     STKPTR equ 0FFCh ;# 
  1460                           # 4103 "C:\Program Files (x86)\HI-TECH Software\PICC-18\9.80\include\pic18f4550.h"
  1461  0000                     TOS equ 0FFDh ;# 
  1462                           # 4115 "C:\Program Files (x86)\HI-TECH Software\PICC-18\9.80\include\pic18f4550.h"
  1463  0000                     TOSL equ 0FFDh ;# 
  1464                           # 4127 "C:\Program Files (x86)\HI-TECH Software\PICC-18\9.80\include\pic18f4550.h"
  1465  0000                     TOSH equ 0FFEh ;# 
  1466                           # 4139 "C:\Program Files (x86)\HI-TECH Software\PICC-18\9.80\include\pic18f4550.h"
  1467  0000                     TOSU equ 0FFFh ;# 
  1468                           # 19 "C:\Program Files (x86)\HI-TECH Software\PICC-18\9.80\include\pic18f4550.h"
  1469  0000                     SPPDATA equ 0F62h ;# 
  1470                           # 31 "C:\Program Files (x86)\HI-TECH Software\PICC-18\9.80\include\pic18f4550.h"
  1471  0000                     SPPCFG equ 0F63h ;# 
  1472                           # 55 "C:\Program Files (x86)\HI-TECH Software\PICC-18\9.80\include\pic18f4550.h"
  1473  0000                     SPPEPS equ 0F64h ;# 
  1474                           # 81 "C:\Program Files (x86)\HI-TECH Software\PICC-18\9.80\include\pic18f4550.h"
  1475  0000                     SPPCON equ 0F65h ;# 
  1476                           # 94 "C:\Program Files (x86)\HI-TECH Software\PICC-18\9.80\include\pic18f4550.h"
  1477  0000                     UFRM equ 0F66h ;# 
  1478                           # 106 "C:\Program Files (x86)\HI-TECH Software\PICC-18\9.80\include\pic18f4550.h"
  1479  0000                     UFRML equ 0F66h ;# 
  1480                           # 131 "C:\Program Files (x86)\HI-TECH Software\PICC-18\9.80\include\pic18f4550.h"
  1481  0000                     UFRMH equ 0F67h ;# 
  1482                           # 148 "C:\Program Files (x86)\HI-TECH Software\PICC-18\9.80\include\pic18f4550.h"
  1483  0000                     UIR equ 0F68h ;# 
  1484                           # 166 "C:\Program Files (x86)\HI-TECH Software\PICC-18\9.80\include\pic18f4550.h"
  1485  0000                     UIE equ 0F69h ;# 
  1486                           # 184 "C:\Program Files (x86)\HI-TECH Software\PICC-18\9.80\include\pic18f4550.h"
  1487  0000                     UEIR equ 0F6Ah ;# 
  1488                           # 202 "C:\Program Files (x86)\HI-TECH Software\PICC-18\9.80\include\pic18f4550.h"
  1489  0000                     UEIE equ 0F6Bh ;# 
  1490                           # 220 "C:\Program Files (x86)\HI-TECH Software\PICC-18\9.80\include\pic18f4550.h"
  1491  0000                     USTAT equ 0F6Ch ;# 
  1492                           # 242 "C:\Program Files (x86)\HI-TECH Software\PICC-18\9.80\include\pic18f4550.h"
  1493  0000                     UCON equ 0F6Dh ;# 
  1494                           # 260 "C:\Program Files (x86)\HI-TECH Software\PICC-18\9.80\include\pic18f4550.h"
  1495  0000                     UADDR equ 0F6Eh ;# 
  1496                           # 281 "C:\Program Files (x86)\HI-TECH Software\PICC-18\9.80\include\pic18f4550.h"
  1497  0000                     UCFG equ 0F6Fh ;# 
  1498                           # 310 "C:\Program Files (x86)\HI-TECH Software\PICC-18\9.80\include\pic18f4550.h"
  1499  0000                     UEP0 equ 0F70h ;# 
  1500                           # 364 "C:\Program Files (x86)\HI-TECH Software\PICC-18\9.80\include\pic18f4550.h"
  1501  0000                     UEP1 equ 0F71h ;# 
  1502                           # 418 "C:\Program Files (x86)\HI-TECH Software\PICC-18\9.80\include\pic18f4550.h"
  1503  0000                     UEP2 equ 0F72h ;# 
  1504                           # 472 "C:\Program Files (x86)\HI-TECH Software\PICC-18\9.80\include\pic18f4550.h"
  1505  0000                     UEP3 equ 0F73h ;# 
  1506                           # 526 "C:\Program Files (x86)\HI-TECH Software\PICC-18\9.80\include\pic18f4550.h"
  1507  0000                     UEP4 equ 0F74h ;# 
  1508                           # 580 "C:\Program Files (x86)\HI-TECH Software\PICC-18\9.80\include\pic18f4550.h"
  1509  0000                     UEP5 equ 0F75h ;# 
  1510                           # 634 "C:\Program Files (x86)\HI-TECH Software\PICC-18\9.80\include\pic18f4550.h"
  1511  0000                     UEP6 equ 0F76h ;# 
  1512                           # 688 "C:\Program Files (x86)\HI-TECH Software\PICC-18\9.80\include\pic18f4550.h"
  1513  0000                     UEP7 equ 0F77h ;# 
  1514                           # 742 "C:\Program Files (x86)\HI-TECH Software\PICC-18\9.80\include\pic18f4550.h"
  1515  0000                     UEP8 equ 0F78h ;# 
  1516                           # 777 "C:\Program Files (x86)\HI-TECH Software\PICC-18\9.80\include\pic18f4550.h"
  1517  0000                     UEP9 equ 0F79h ;# 
  1518                           # 812 "C:\Program Files (x86)\HI-TECH Software\PICC-18\9.80\include\pic18f4550.h"
  1519  0000                     UEP10 equ 0F7Ah ;# 
  1520                           # 847 "C:\Program Files (x86)\HI-TECH Software\PICC-18\9.80\include\pic18f4550.h"
  1521  0000                     UEP11 equ 0F7Bh ;# 
  1522                           # 882 "C:\Program Files (x86)\HI-TECH Software\PICC-18\9.80\include\pic18f4550.h"
  1523  0000                     UEP12 equ 0F7Ch ;# 
  1524                           # 917 "C:\Program Files (x86)\HI-TECH Software\PICC-18\9.80\include\pic18f4550.h"
  1525  0000                     UEP13 equ 0F7Dh ;# 
  1526                           # 952 "C:\Program Files (x86)\HI-TECH Software\PICC-18\9.80\include\pic18f4550.h"
  1527  0000                     UEP14 equ 0F7Eh ;# 
  1528                           # 987 "C:\Program Files (x86)\HI-TECH Software\PICC-18\9.80\include\pic18f4550.h"
  1529  0000                     UEP15 equ 0F7Fh ;# 
  1530                           # 1022 "C:\Program Files (x86)\HI-TECH Software\PICC-18\9.80\include\pic18f4550.h"
  1531  0000                     PORTA equ 0F80h ;# 
  1532                           # 1074 "C:\Program Files (x86)\HI-TECH Software\PICC-18\9.80\include\pic18f4550.h"
  1533  0000                     PORTB equ 0F81h ;# 
  1534                           # 1109 "C:\Program Files (x86)\HI-TECH Software\PICC-18\9.80\include\pic18f4550.h"
  1535  0000                     PORTC equ 0F82h ;# 
  1536                           # 1163 "C:\Program Files (x86)\HI-TECH Software\PICC-18\9.80\include\pic18f4550.h"
  1537  0000                     PORTD equ 0F83h ;# 
  1538                           # 1199 "C:\Program Files (x86)\HI-TECH Software\PICC-18\9.80\include\pic18f4550.h"
  1539  0000                     PORTE equ 0F84h ;# 
  1540                           # 1306 "C:\Program Files (x86)\HI-TECH Software\PICC-18\9.80\include\pic18f4550.h"
  1541  0000                     LATA equ 0F89h ;# 
  1542                           # 1362 "C:\Program Files (x86)\HI-TECH Software\PICC-18\9.80\include\pic18f4550.h"
  1543  0000                     LATB equ 0F8Ah ;# 
  1544                           # 1415 "C:\Program Files (x86)\HI-TECH Software\PICC-18\9.80\include\pic18f4550.h"
  1545  0000                     LATC equ 0F8Bh ;# 
  1546                           # 1466 "C:\Program Files (x86)\HI-TECH Software\PICC-18\9.80\include\pic18f4550.h"
  1547  0000                     LATD equ 0F8Ch ;# 
  1548                           # 1519 "C:\Program Files (x86)\HI-TECH Software\PICC-18\9.80\include\pic18f4550.h"
  1549  0000                     LATE equ 0F8Dh ;# 
  1550                           # 1567 "C:\Program Files (x86)\HI-TECH Software\PICC-18\9.80\include\pic18f4550.h"
  1551  0000                     TRISA equ 0F92h ;# 
  1552                           # 1572 "C:\Program Files (x86)\HI-TECH Software\PICC-18\9.80\include\pic18f4550.h"
  1553  0000                     DDRA equ 0F92h ;# 
  1554                           # 1626 "C:\Program Files (x86)\HI-TECH Software\PICC-18\9.80\include\pic18f4550.h"
  1555  0000                     TRISB equ 0F93h ;# 
  1556                           # 1631 "C:\Program Files (x86)\HI-TECH Software\PICC-18\9.80\include\pic18f4550.h"
  1557  0000                     DDRB equ 0F93h ;# 
  1558                           # 1689 "C:\Program Files (x86)\HI-TECH Software\PICC-18\9.80\include\pic18f4550.h"
  1559  0000                     TRISC equ 0F94h ;# 
  1560                           # 1694 "C:\Program Files (x86)\HI-TECH Software\PICC-18\9.80\include\pic18f4550.h"
  1561  0000                     DDRC equ 0F94h ;# 
  1562                           # 1752 "C:\Program Files (x86)\HI-TECH Software\PICC-18\9.80\include\pic18f4550.h"
  1563  0000                     TRISD equ 0F95h ;# 
  1564                           # 1757 "C:\Program Files (x86)\HI-TECH Software\PICC-18\9.80\include\pic18f4550.h"
  1565  0000                     DDRD equ 0F95h ;# 
  1566                           # 1815 "C:\Program Files (x86)\HI-TECH Software\PICC-18\9.80\include\pic18f4550.h"
  1567  0000                     TRISE equ 0F96h ;# 
  1568                           # 1820 "C:\Program Files (x86)\HI-TECH Software\PICC-18\9.80\include\pic18f4550.h"
  1569  0000                     DDRE equ 0F96h ;# 
  1570                           # 1858 "C:\Program Files (x86)\HI-TECH Software\PICC-18\9.80\include\pic18f4550.h"
  1571  0000                     OSCTUNE equ 0F9Bh ;# 
  1572                           # 1879 "C:\Program Files (x86)\HI-TECH Software\PICC-18\9.80\include\pic18f4550.h"
  1573  0000                     PIE1 equ 0F9Dh ;# 
  1574                           # 1910 "C:\Program Files (x86)\HI-TECH Software\PICC-18\9.80\include\pic18f4550.h"
  1575  0000                     PIR1 equ 0F9Eh ;# 
  1576                           # 1941 "C:\Program Files (x86)\HI-TECH Software\PICC-18\9.80\include\pic18f4550.h"
  1577  0000                     IPR1 equ 0F9Fh ;# 
  1578                           # 1972 "C:\Program Files (x86)\HI-TECH Software\PICC-18\9.80\include\pic18f4550.h"
  1579  0000                     PIE2 equ 0FA0h ;# 
  1580                           # 1995 "C:\Program Files (x86)\HI-TECH Software\PICC-18\9.80\include\pic18f4550.h"
  1581  0000                     PIR2 equ 0FA1h ;# 
  1582                           # 2018 "C:\Program Files (x86)\HI-TECH Software\PICC-18\9.80\include\pic18f4550.h"
  1583  0000                     IPR2 equ 0FA2h ;# 
  1584                           # 2041 "C:\Program Files (x86)\HI-TECH Software\PICC-18\9.80\include\pic18f4550.h"
  1585  0000                     EECON1 equ 0FA6h ;# 
  1586                           # 2064 "C:\Program Files (x86)\HI-TECH Software\PICC-18\9.80\include\pic18f4550.h"
  1587  0000                     EECON2 equ 0FA7h ;# 
  1588                           # 2076 "C:\Program Files (x86)\HI-TECH Software\PICC-18\9.80\include\pic18f4550.h"
  1589  0000                     EEDATA equ 0FA8h ;# 
  1590                           # 2088 "C:\Program Files (x86)\HI-TECH Software\PICC-18\9.80\include\pic18f4550.h"
  1591  0000                     EEADR equ 0FA9h ;# 
  1592                           # 2100 "C:\Program Files (x86)\HI-TECH Software\PICC-18\9.80\include\pic18f4550.h"
  1593  0000                     RCSTA equ 0FABh ;# 
  1594                           # 2105 "C:\Program Files (x86)\HI-TECH Software\PICC-18\9.80\include\pic18f4550.h"
  1595  0000                     RCSTA1 equ 0FABh ;# 
  1596                           # 2153 "C:\Program Files (x86)\HI-TECH Software\PICC-18\9.80\include\pic18f4550.h"
  1597  0000                     TXSTA equ 0FACh ;# 
  1598                           # 2158 "C:\Program Files (x86)\HI-TECH Software\PICC-18\9.80\include\pic18f4550.h"
  1599  0000                     TXSTA1 equ 0FACh ;# 
  1600                           # 2252 "C:\Program Files (x86)\HI-TECH Software\PICC-18\9.80\include\pic18f4550.h"
  1601  0000                     TXREG equ 0FADh ;# 
  1602                           # 2257 "C:\Program Files (x86)\HI-TECH Software\PICC-18\9.80\include\pic18f4550.h"
  1603  0000                     TXREG1 equ 0FADh ;# 
  1604                           # 2275 "C:\Program Files (x86)\HI-TECH Software\PICC-18\9.80\include\pic18f4550.h"
  1605  0000                     RCREG equ 0FAEh ;# 
  1606                           # 2280 "C:\Program Files (x86)\HI-TECH Software\PICC-18\9.80\include\pic18f4550.h"
  1607  0000                     RCREG1 equ 0FAEh ;# 
  1608                           # 2298 "C:\Program Files (x86)\HI-TECH Software\PICC-18\9.80\include\pic18f4550.h"
  1609  0000                     SPBRG equ 0FAFh ;# 
  1610                           # 2303 "C:\Program Files (x86)\HI-TECH Software\PICC-18\9.80\include\pic18f4550.h"
  1611  0000                     SPBRG1 equ 0FAFh ;# 
  1612                           # 2321 "C:\Program Files (x86)\HI-TECH Software\PICC-18\9.80\include\pic18f4550.h"
  1613  0000                     SPBRGH equ 0FB0h ;# 
  1614                           # 2333 "C:\Program Files (x86)\HI-TECH Software\PICC-18\9.80\include\pic18f4550.h"
  1615  0000                     T3CON equ 0FB1h ;# 
  1616                           # 2378 "C:\Program Files (x86)\HI-TECH Software\PICC-18\9.80\include\pic18f4550.h"
  1617  0000                     TMR3 equ 0FB2h ;# 
  1618                           # 2390 "C:\Program Files (x86)\HI-TECH Software\PICC-18\9.80\include\pic18f4550.h"
  1619  0000                     TMR3L equ 0FB2h ;# 
  1620                           # 2402 "C:\Program Files (x86)\HI-TECH Software\PICC-18\9.80\include\pic18f4550.h"
  1621  0000                     TMR3H equ 0FB3h ;# 
  1622                           # 2414 "C:\Program Files (x86)\HI-TECH Software\PICC-18\9.80\include\pic18f4550.h"
  1623  0000                     CMCON equ 0FB4h ;# 
  1624                           # 2447 "C:\Program Files (x86)\HI-TECH Software\PICC-18\9.80\include\pic18f4550.h"
  1625  0000                     CVRCON equ 0FB5h ;# 
  1626                           # 2474 "C:\Program Files (x86)\HI-TECH Software\PICC-18\9.80\include\pic18f4550.h"
  1627  0000                     ECCP1AS equ 0FB6h ;# 
  1628                           # 2479 "C:\Program Files (x86)\HI-TECH Software\PICC-18\9.80\include\pic18f4550.h"
  1629  0000                     CCP1AS equ 0FB6h ;# 
  1630                           # 2521 "C:\Program Files (x86)\HI-TECH Software\PICC-18\9.80\include\pic18f4550.h"
  1631  0000                     ECCP1DEL equ 0FB7h ;# 
  1632                           # 2526 "C:\Program Files (x86)\HI-TECH Software\PICC-18\9.80\include\pic18f4550.h"
  1633  0000                     CCP1DEL equ 0FB7h ;# 
  1634                           # 2564 "C:\Program Files (x86)\HI-TECH Software\PICC-18\9.80\include\pic18f4550.h"
  1635  0000                     BAUDCON equ 0FB8h ;# 
  1636                           # 2569 "C:\Program Files (x86)\HI-TECH Software\PICC-18\9.80\include\pic18f4550.h"
  1637  0000                     BAUDCTL equ 0FB8h ;# 
  1638                           # 2629 "C:\Program Files (x86)\HI-TECH Software\PICC-18\9.80\include\pic18f4550.h"
  1639  0000                     CCP2CON equ 0FBAh ;# 
  1640                           # 2650 "C:\Program Files (x86)\HI-TECH Software\PICC-18\9.80\include\pic18f4550.h"
  1641  0000                     CCPR2 equ 0FBBh ;# 
  1642                           # 2662 "C:\Program Files (x86)\HI-TECH Software\PICC-18\9.80\include\pic18f4550.h"
  1643  0000                     CCPR2L equ 0FBBh ;# 
  1644                           # 2674 "C:\Program Files (x86)\HI-TECH Software\PICC-18\9.80\include\pic18f4550.h"
  1645  0000                     CCPR2H equ 0FBCh ;# 
  1646                           # 2686 "C:\Program Files (x86)\HI-TECH Software\PICC-18\9.80\include\pic18f4550.h"
  1647  0000                     CCP1CON equ 0FBDh ;# 
  1648                           # 2691 "C:\Program Files (x86)\HI-TECH Software\PICC-18\9.80\include\pic18f4550.h"
  1649  0000                     ECCP1CON equ 0FBDh ;# 
  1650                           # 2733 "C:\Program Files (x86)\HI-TECH Software\PICC-18\9.80\include\pic18f4550.h"
  1651  0000                     CCPR1 equ 0FBEh ;# 
  1652                           # 2745 "C:\Program Files (x86)\HI-TECH Software\PICC-18\9.80\include\pic18f4550.h"
  1653  0000                     CCPR1L equ 0FBEh ;# 
  1654                           # 2757 "C:\Program Files (x86)\HI-TECH Software\PICC-18\9.80\include\pic18f4550.h"
  1655  0000                     CCPR1H equ 0FBFh ;# 
  1656                           # 2769 "C:\Program Files (x86)\HI-TECH Software\PICC-18\9.80\include\pic18f4550.h"
  1657  0000                     ADCON2 equ 0FC0h ;# 
  1658                           # 2792 "C:\Program Files (x86)\HI-TECH Software\PICC-18\9.80\include\pic18f4550.h"
  1659  0000                     ADCON1 equ 0FC1h ;# 
  1660                           # 2825 "C:\Program Files (x86)\HI-TECH Software\PICC-18\9.80\include\pic18f4550.h"
  1661  0000                     ADCON0 equ 0FC2h ;# 
  1662                           # 2880 "C:\Program Files (x86)\HI-TECH Software\PICC-18\9.80\include\pic18f4550.h"
  1663  0000                     ADRES equ 0FC3h ;# 
  1664                           # 2892 "C:\Program Files (x86)\HI-TECH Software\PICC-18\9.80\include\pic18f4550.h"
  1665  0000                     ADRESL equ 0FC3h ;# 
  1666                           # 2904 "C:\Program Files (x86)\HI-TECH Software\PICC-18\9.80\include\pic18f4550.h"
  1667  0000                     ADRESH equ 0FC4h ;# 
  1668                           # 2916 "C:\Program Files (x86)\HI-TECH Software\PICC-18\9.80\include\pic18f4550.h"
  1669  0000                     SSPCON2 equ 0FC5h ;# 
  1670                           # 2935 "C:\Program Files (x86)\HI-TECH Software\PICC-18\9.80\include\pic18f4550.h"
  1671  0000                     SSPCON1 equ 0FC6h ;# 
  1672                           # 2957 "C:\Program Files (x86)\HI-TECH Software\PICC-18\9.80\include\pic18f4550.h"
  1673  0000                     SSPSTAT equ 0FC7h ;# 
  1674                           # 3071 "C:\Program Files (x86)\HI-TECH Software\PICC-18\9.80\include\pic18f4550.h"
  1675  0000                     SSPADD equ 0FC8h ;# 
  1676                           # 3083 "C:\Program Files (x86)\HI-TECH Software\PICC-18\9.80\include\pic18f4550.h"
  1677  0000                     SSPBUF equ 0FC9h ;# 
  1678                           # 3095 "C:\Program Files (x86)\HI-TECH Software\PICC-18\9.80\include\pic18f4550.h"
  1679  0000                     T2CON equ 0FCAh ;# 
  1680                           # 3125 "C:\Program Files (x86)\HI-TECH Software\PICC-18\9.80\include\pic18f4550.h"
  1681  0000                     PR2 equ 0FCBh ;# 
  1682                           # 3130 "C:\Program Files (x86)\HI-TECH Software\PICC-18\9.80\include\pic18f4550.h"
  1683  0000                     MEMCON equ 0FCBh ;# 
  1684                           # 3148 "C:\Program Files (x86)\HI-TECH Software\PICC-18\9.80\include\pic18f4550.h"
  1685  0000                     TMR2 equ 0FCCh ;# 
  1686                           # 3160 "C:\Program Files (x86)\HI-TECH Software\PICC-18\9.80\include\pic18f4550.h"
  1687  0000                     T1CON equ 0FCDh ;# 
  1688                           # 3197 "C:\Program Files (x86)\HI-TECH Software\PICC-18\9.80\include\pic18f4550.h"
  1689  0000                     TMR1 equ 0FCEh ;# 
  1690                           # 3209 "C:\Program Files (x86)\HI-TECH Software\PICC-18\9.80\include\pic18f4550.h"
  1691  0000                     TMR1L equ 0FCEh ;# 
  1692                           # 3221 "C:\Program Files (x86)\HI-TECH Software\PICC-18\9.80\include\pic18f4550.h"
  1693  0000                     TMR1H equ 0FCFh ;# 
  1694                           # 3233 "C:\Program Files (x86)\HI-TECH Software\PICC-18\9.80\include\pic18f4550.h"
  1695  0000                     RCON equ 0FD0h ;# 
  1696                           # 3284 "C:\Program Files (x86)\HI-TECH Software\PICC-18\9.80\include\pic18f4550.h"
  1697  0000                     WDTCON equ 0FD1h ;# 
  1698                           # 3299 "C:\Program Files (x86)\HI-TECH Software\PICC-18\9.80\include\pic18f4550.h"
  1699  0000                     HLVDCON equ 0FD2h ;# 
  1700                           # 3304 "C:\Program Files (x86)\HI-TECH Software\PICC-18\9.80\include\pic18f4550.h"
  1701  0000                     LVDCON equ 0FD2h ;# 
  1702                           # 3374 "C:\Program Files (x86)\HI-TECH Software\PICC-18\9.80\include\pic18f4550.h"
  1703  0000                     OSCCON equ 0FD3h ;# 
  1704                           # 3399 "C:\Program Files (x86)\HI-TECH Software\PICC-18\9.80\include\pic18f4550.h"
  1705  0000                     T0CON equ 0FD5h ;# 
  1706                           # 3421 "C:\Program Files (x86)\HI-TECH Software\PICC-18\9.80\include\pic18f4550.h"
  1707  0000                     TMR0 equ 0FD6h ;# 
  1708                           # 3433 "C:\Program Files (x86)\HI-TECH Software\PICC-18\9.80\include\pic18f4550.h"
  1709  0000                     TMR0L equ 0FD6h ;# 
  1710                           # 3445 "C:\Program Files (x86)\HI-TECH Software\PICC-18\9.80\include\pic18f4550.h"
  1711  0000                     TMR0H equ 0FD7h ;# 
  1712                           # 3457 "C:\Program Files (x86)\HI-TECH Software\PICC-18\9.80\include\pic18f4550.h"
  1713  0000                     STATUS equ 0FD8h ;# 
  1714                           # 3488 "C:\Program Files (x86)\HI-TECH Software\PICC-18\9.80\include\pic18f4550.h"
  1715  0000                     FSR2 equ 0FD9h ;# 
  1716                           # 3500 "C:\Program Files (x86)\HI-TECH Software\PICC-18\9.80\include\pic18f4550.h"
  1717  0000                     FSR2L equ 0FD9h ;# 
  1718                           # 3512 "C:\Program Files (x86)\HI-TECH Software\PICC-18\9.80\include\pic18f4550.h"
  1719  0000                     FSR2H equ 0FDAh ;# 
  1720                           # 3524 "C:\Program Files (x86)\HI-TECH Software\PICC-18\9.80\include\pic18f4550.h"
  1721  0000                     PLUSW2 equ 0FDBh ;# 
  1722                           # 3536 "C:\Program Files (x86)\HI-TECH Software\PICC-18\9.80\include\pic18f4550.h"
  1723  0000                     PREINC2 equ 0FDCh ;# 
  1724                           # 3548 "C:\Program Files (x86)\HI-TECH Software\PICC-18\9.80\include\pic18f4550.h"
  1725  0000                     POSTDEC2 equ 0FDDh ;# 
  1726                           # 3560 "C:\Program Files (x86)\HI-TECH Software\PICC-18\9.80\include\pic18f4550.h"
  1727  0000                     POSTINC2 equ 0FDEh ;# 
  1728                           # 3572 "C:\Program Files (x86)\HI-TECH Software\PICC-18\9.80\include\pic18f4550.h"
  1729  0000                     INDF2 equ 0FDFh ;# 
  1730                           # 3584 "C:\Program Files (x86)\HI-TECH Software\PICC-18\9.80\include\pic18f4550.h"
  1731  0000                     BSR equ 0FE0h ;# 
  1732                           # 3596 "C:\Program Files (x86)\HI-TECH Software\PICC-18\9.80\include\pic18f4550.h"
  1733  0000                     FSR1 equ 0FE1h ;# 
  1734                           # 3608 "C:\Program Files (x86)\HI-TECH Software\PICC-18\9.80\include\pic18f4550.h"
  1735  0000                     FSR1L equ 0FE1h ;# 
  1736                           # 3620 "C:\Program Files (x86)\HI-TECH Software\PICC-18\9.80\include\pic18f4550.h"
  1737  0000                     FSR1H equ 0FE2h ;# 
  1738                           # 3632 "C:\Program Files (x86)\HI-TECH Software\PICC-18\9.80\include\pic18f4550.h"
  1739  0000                     PLUSW1 equ 0FE3h ;# 
  1740                           # 3644 "C:\Program Files (x86)\HI-TECH Software\PICC-18\9.80\include\pic18f4550.h"
  1741  0000                     PREINC1 equ 0FE4h ;# 
  1742                           # 3656 "C:\Program Files (x86)\HI-TECH Software\PICC-18\9.80\include\pic18f4550.h"
  1743  0000                     POSTDEC1 equ 0FE5h ;# 
  1744                           # 3668 "C:\Program Files (x86)\HI-TECH Software\PICC-18\9.80\include\pic18f4550.h"
  1745  0000                     POSTINC1 equ 0FE6h ;# 
  1746                           # 3680 "C:\Program Files (x86)\HI-TECH Software\PICC-18\9.80\include\pic18f4550.h"
  1747  0000                     INDF1 equ 0FE7h ;# 
  1748                           # 3692 "C:\Program Files (x86)\HI-TECH Software\PICC-18\9.80\include\pic18f4550.h"
  1749  0000                     WREG equ 0FE8h ;# 
  1750                           # 3704 "C:\Program Files (x86)\HI-TECH Software\PICC-18\9.80\include\pic18f4550.h"
  1751  0000                     FSR0 equ 0FE9h ;# 
  1752                           # 3716 "C:\Program Files (x86)\HI-TECH Software\PICC-18\9.80\include\pic18f4550.h"
  1753  0000                     FSR0L equ 0FE9h ;# 
  1754                           # 3728 "C:\Program Files (x86)\HI-TECH Software\PICC-18\9.80\include\pic18f4550.h"
  1755  0000                     FSR0H equ 0FEAh ;# 
  1756                           # 3740 "C:\Program Files (x86)\HI-TECH Software\PICC-18\9.80\include\pic18f4550.h"
  1757  0000                     PLUSW0 equ 0FEBh ;# 
  1758                           # 3752 "C:\Program Files (x86)\HI-TECH Software\PICC-18\9.80\include\pic18f4550.h"
  1759  0000                     PREINC0 equ 0FECh ;# 
  1760                           # 3764 "C:\Program Files (x86)\HI-TECH Software\PICC-18\9.80\include\pic18f4550.h"
  1761  0000                     POSTDEC0 equ 0FEDh ;# 
  1762                           # 3776 "C:\Program Files (x86)\HI-TECH Software\PICC-18\9.80\include\pic18f4550.h"
  1763  0000                     POSTINC0 equ 0FEEh ;# 
  1764                           # 3788 "C:\Program Files (x86)\HI-TECH Software\PICC-18\9.80\include\pic18f4550.h"
  1765  0000                     INDF0 equ 0FEFh ;# 
  1766                           # 3800 "C:\Program Files (x86)\HI-TECH Software\PICC-18\9.80\include\pic18f4550.h"
  1767  0000                     INTCON3 equ 0FF0h ;# 
  1768                           # 3829 "C:\Program Files (x86)\HI-TECH Software\PICC-18\9.80\include\pic18f4550.h"
  1769  0000                     INTCON2 equ 0FF1h ;# 
  1770                           # 3858 "C:\Program Files (x86)\HI-TECH Software\PICC-18\9.80\include\pic18f4550.h"
  1771  0000                     INTCON equ 0FF2h ;# 
  1772                           # 3922 "C:\Program Files (x86)\HI-TECH Software\PICC-18\9.80\include\pic18f4550.h"
  1773  0000                     PROD equ 0FF3h ;# 
  1774                           # 3934 "C:\Program Files (x86)\HI-TECH Software\PICC-18\9.80\include\pic18f4550.h"
  1775  0000                     PRODL equ 0FF3h ;# 
  1776                           # 3946 "C:\Program Files (x86)\HI-TECH Software\PICC-18\9.80\include\pic18f4550.h"
  1777  0000                     PRODH equ 0FF4h ;# 
  1778                           # 3958 "C:\Program Files (x86)\HI-TECH Software\PICC-18\9.80\include\pic18f4550.h"
  1779  0000                     TABLAT equ 0FF5h ;# 
  1780                           # 3970 "C:\Program Files (x86)\HI-TECH Software\PICC-18\9.80\include\pic18f4550.h"
  1781  0000                     TBLPTR equ 0FF6h ;# 
  1782                           # 3982 "C:\Program Files (x86)\HI-TECH Software\PICC-18\9.80\include\pic18f4550.h"
  1783  0000                     TBLPTRL equ 0FF6h ;# 
  1784                           # 3994 "C:\Program Files (x86)\HI-TECH Software\PICC-18\9.80\include\pic18f4550.h"
  1785  0000                     TBLPTRH equ 0FF7h ;# 
  1786                           # 4006 "C:\Program Files (x86)\HI-TECH Software\PICC-18\9.80\include\pic18f4550.h"
  1787  0000                     TBLPTRU equ 0FF8h ;# 
  1788                           # 4018 "C:\Program Files (x86)\HI-TECH Software\PICC-18\9.80\include\pic18f4550.h"
  1789  0000                     PCLAT equ 0FF9h ;# 
  1790                           # 4023 "C:\Program Files (x86)\HI-TECH Software\PICC-18\9.80\include\pic18f4550.h"
  1791  0000                     PC equ 0FF9h ;# 
  1792                           # 4041 "C:\Program Files (x86)\HI-TECH Software\PICC-18\9.80\include\pic18f4550.h"
  1793  0000                     PCL equ 0FF9h ;# 
  1794                           # 4053 "C:\Program Files (x86)\HI-TECH Software\PICC-18\9.80\include\pic18f4550.h"
  1795  0000                     PCLATH equ 0FFAh ;# 
  1796                           # 4065 "C:\Program Files (x86)\HI-TECH Software\PICC-18\9.80\include\pic18f4550.h"
  1797  0000                     PCLATU equ 0FFBh ;# 
  1798                           # 4077 "C:\Program Files (x86)\HI-TECH Software\PICC-18\9.80\include\pic18f4550.h"
  1799  0000                     STKPTR equ 0FFCh ;# 
  1800                           # 4103 "C:\Program Files (x86)\HI-TECH Software\PICC-18\9.80\include\pic18f4550.h"
  1801  0000                     TOS equ 0FFDh ;# 
  1802                           # 4115 "C:\Program Files (x86)\HI-TECH Software\PICC-18\9.80\include\pic18f4550.h"
  1803  0000                     TOSL equ 0FFDh ;# 
  1804                           # 4127 "C:\Program Files (x86)\HI-TECH Software\PICC-18\9.80\include\pic18f4550.h"
  1805  0000                     TOSH equ 0FFEh ;# 
  1806                           # 4139 "C:\Program Files (x86)\HI-TECH Software\PICC-18\9.80\include\pic18f4550.h"
  1807  0000                     TOSU equ 0FFFh ;# 
  1808 ;; Function _ep0_in_handler_send_descriptor is unused but had its address taken
  1809                           global _ep0_in_handler_send_descriptor
  1810  0000                     _ep0_in_handler_send_descriptor equ 0
  1811 ;; Function _ep0_out_handler_ack is unused but had its address taken
  1812                           global _ep0_out_handler_ack
  1813  0000                     _ep0_out_handler_ack equ 0
  1814 ;; Function _ep0_in_handler_ack is unused but had its address taken
  1815                           global _ep0_in_handler_ack
  1816  0000                     _ep0_in_handler_ack equ 0
  1817 ;; Function _ep0_in_handler_set_address is unused but had its address taken
  1818                           global _ep0_in_handler_set_address
  1819  0000                     _ep0_in_handler_set_address equ 0
  1820 ;; Function _ep0_in_handler_configure is unused but had its address taken
  1821                           global _ep0_in_handler_configure
  1822  0000                     _ep0_in_handler_configure equ 0
  1823                           	FNROOT	_main
  1824                           	global	_ep1_last_data_bit
  1825                           	global	_ep1_sent
  1826                           psect	idataCOMRAM,class=CODE,space=0,delta=1
  1827                           global __pidataCOMRAM
  1828  00088E                     __pidataCOMRAM:
  1829                           	file	"src/usb/ep1.c"
  1830                           	line	13
  1831                           
  1832                           ;initializer for _ep1_last_data_bit
  1833  00088E  01                 	db	low(01h)
  1834                           	line	14
  1835                           
  1836                           ;initializer for _ep1_sent
  1837  00088F  01                 	db	low(01h)
  1838                           	global	_conf_desc_0
  1839                           psect	smallconst,class=SMALLCONST,space=0,reloc=2
  1840                           global __psmallconst
  1841  000800                     __psmallconst:
  1842                           	file	"src/usb/descriptor.h"
  1843                           	line	52
  1844  000800                     _conf_desc_0:
  1845  000800  09                 	db	low(09h)
  1846  000801  02                 	db	low(02h)
  1847  000802  20                 	db	low(020h)
  1848  000803  00                 	db	low(0)
  1849  000804  01                 	db	low(01h)
  1850  000805  01                 	db	low(01h)
  1851  000806  00                 	db	low(0)
  1852  000807  80                 	db	low(080h)
  1853  000808  32                 	db	low(032h)
  1854  000809  09                 	db	low(09h)
  1855  00080A  04                 	db	low(04h)
  1856  00080B  00                 	db	low(0)
  1857  00080C  00                 	db	low(0)
  1858  00080D  02                 	db	low(02h)
  1859  00080E  FF                 	db	low(0FFh)
  1860  00080F  FF                 	db	low(0FFh)
  1861  000810  FF                 	db	low(0FFh)
  1862  000811  02                 	db	low(02h)
  1863  000812  07                 	db	low(07h)
  1864  000813  05                 	db	low(05h)
  1865  000814  81                 	db	low(081h)
  1866  000815  02                 	db	low(02h)
  1867  000816  40                 	db	low(040h)
  1868  000817  00                 	db	low(0)
  1869  000818  0F                 	db	low(0Fh)
  1870  000819  07                 	db	low(07h)
  1871  00081A  05                 	db	low(05h)
  1872  00081B  02                 	db	low(02h)
  1873  00081C  02                 	db	low(02h)
  1874  00081D  40                 	db	low(040h)
  1875  00081E  00                 	db	low(0)
  1876  00081F  0F                 	db	low(0Fh)
  1877                           	global	_string_desc_2
  1878                           psect	smallconst
  1879                           	file	"src/usb/descriptor.h"
  1880                           	line	116
  1881  000820                     _string_desc_2:
  1882  000820  18                 	db	low(018h)
  1883  000821  03                 	db	low(03h)
  1884  000822  50                 	db	low(050h)
  1885  000823  00                 	db	low(0)
  1886  000824  00                 	db	low(0)
  1887  000825  52                 	db	low(052h)
  1888  000826  00                 	db	low(0)
  1889  000827  4F                 	db	low(04Fh)
  1890  000828  00                 	db	low(0)
  1891  000829  47                 	db	low(047h)
  1892  00082A  00                 	db	low(0)
  1893  00082B  52                 	db	low(052h)
  1894  00082C  00                 	db	low(0)
  1895  00082D  41                 	db	low(041h)
  1896  00082E  00                 	db	low(0)
  1897  00082F  4D                 	db	low(04Dh)
  1898  000830  00                 	db	low(0)
  1899  000831  4D                 	db	low(04Dh)
  1900  000832  00                 	db	low(0)
  1901  000833  45                 	db	low(045h)
  1902  000834  00                 	db	low(0)
  1903  000835  52                 	db	low(052h)
  1904  000836  00                 	db	low(0)
  1905  000837  00                 	db	low(0)
  1906                           	global	_dev_desc
  1907                           psect	smallconst
  1908                           	file	"src/usb/descriptor.h"
  1909                           	line	14
  1910  000838                     _dev_desc:
  1911  000838  12                 	db	low(012h)
  1912  000839  01                 	db	low(01h)
  1913  00083A  00                 	db	low(0)
  1914  00083B  02                 	db	low(02h)
  1915  00083C  00                 	db	low(0)
  1916  00083D  00                 	db	low(0)
  1917  00083E  00                 	db	low(0)
  1918  00083F  40                 	db	low(040h)
  1919  000840  AD                 	db	low(0ADh)
  1920  000841  DE                 	db	low(0DEh)
  1921  000842  02                 	db	low(02h)
  1922  000843  00                 	db	low(0)
  1923  000844  00                 	db	low(0)
  1924  000845  00                 	db	low(0)
  1925  000846  01                 	db	low(01h)
  1926  000847  02                 	db	low(02h)
  1927  000848  00                 	db	low(0)
  1928  000849  01                 	db	low(01h)
  1929                           	global	_string_desc_1
  1930                           psect	smallconst
  1931                           	file	"src/usb/descriptor.h"
  1932                           	line	107
  1933  00084A                     _string_desc_1:
  1934  00084A  0C                 	db	low(0Ch)
  1935  00084B  03                 	db	low(03h)
  1936  00084C  00                 	db	low(0)
  1937  00084D  52                 	db	low(052h)
  1938  00084E  00                 	db	low(0)
  1939  00084F  55                 	db	low(055h)
  1940  000850  00                 	db	low(0)
  1941  000851  44                 	db	low(044h)
  1942  000852  00                 	db	low(0)
  1943  000853  41                 	db	low(041h)
  1944  000854  00                 	db	low(0)
  1945  000855  00                 	db	low(0)
  1946                           	global	_string_desc_0
  1947                           psect	smallconst
  1948                           	file	"src/usb/descriptor.h"
  1949                           	line	98
  1950  000856                     _string_desc_0:
  1951  000856  04                 	db	low(04h)
  1952  000857  03                 	db	low(03h)
  1953  000858  09                 	db	low(09h)
  1954  000859  04                 	db	low(04h)
  1955                           	global	_conf_desc_0
  1956                           	global	_string_desc_2
  1957                           	global	_dev_desc
  1958                           	global	_string_desc_1
  1959                           	global	_string_desc_0
  1960                           	global	_ep0_in_decsriptor
  1961                           	global	_ep0_in_handler
  1962                           	global	_ep0_in_total_bytes_sent
  1963                           	global	_ep0_in_total_bytes_sent_on_last_transfer
  1964                           	global	_ep0_in_total_bytes_to_send
  1965                           	global	_ep0_out_handler
  1966                           	global	_ep2_receive_handler
  1967                           	global	_ep0_bdstat
  1968                           	global	_ep0_dir
  1969                           	global	_ep0_last_data_bit
  1970                           	global	_ep0_temp_uaddr
  1971                           	global	_ep2_code
  1972                           	global	_ep2_last_data_bit
  1973                           	global	_toggle
  1974                           	global	_total_writen
  1975                           	global	_usb_device_state
  1976                           	global	_UADDR
  1977  0000                     _UADDR	set	0xF6E
  1978                           	global	_UCFG
  1979  0000                     _UCFG	set	0xF6F
  1980                           	global	_UCON
  1981  0000                     _UCON	set	0xF6D
  1982                           	global	_UCONbits
  1983  0000                     _UCONbits	set	0xF6D
  1984                           	global	_UEP0
  1985  0000                     _UEP0	set	0xF70
  1986                           	global	_UEP1
  1987  0000                     _UEP1	set	0xF71
  1988                           	global	_UEP2
  1989  0000                     _UEP2	set	0xF72
  1990                           	global	_UIE
  1991  0000                     _UIE	set	0xF69
  1992                           	global	_UIR
  1993  0000                     _UIR	set	0xF68
  1994                           	global	_UIRbits
  1995  0000                     _UIRbits	set	0xF68
  1996                           	global	_USTAT
  1997  0000                     _USTAT	set	0xF6C
  1998                           	global	_ep0_out_bd
  1999                           	global	_ep0_out_bd
  2000  0000                     _ep0_out_bd  equ     1024
  2001                           
  2002                           	DABS	1,1024,4	;_ep0_out_bd
  2003                           	global	_ep0_out_buffer
  2004                           	global	_ep0_out_buffer
  2005  0000                     _ep0_out_buffer  equ     1280
  2006                           
  2007                           	DABS	1,1280,64	;_ep0_out_buffer
  2008                           	global	_ep1_bd
  2009                           	global	_ep1_bd
  2010  0000                     _ep1_bd  equ     1036
  2011                           
  2012                           	DABS	1,1036,4	;_ep1_bd
  2013                           	global	_ep0_in_bd
  2014                           	global	_ep0_in_bd
  2015  0000                     _ep0_in_bd  equ     1028
  2016                           
  2017                           	DABS	1,1028,4	;_ep0_in_bd
  2018                           	global	_ep1_buffer
  2019                           	global	_ep1_buffer
  2020  0000                     _ep1_buffer  equ     1408
  2021                           
  2022                           	DABS	1,1408,64	;_ep1_buffer
  2023                           	global	_ep2_buffer
  2024                           	global	_ep2_buffer
  2025  0000                     _ep2_buffer  equ     1472
  2026                           
  2027                           	DABS	1,1472,64	;_ep2_buffer
  2028                           	global	_ep0_in_buffer
  2029                           	global	_ep0_in_buffer
  2030  0000                     _ep0_in_buffer  equ     1344
  2031                           
  2032                           	DABS	1,1344,64	;_ep0_in_buffer
  2033                           	global	_ep2_bd
  2034                           	global	_ep2_bd
  2035  0000                     _ep2_bd  equ     1040
  2036                           
  2037                           	DABS	1,1040,4	;_ep2_bd
  2038                           ; #config settings
  2039                           	file	"C:\Users\RUDARO~1\AppData\Local\Temp\s2o8."
  2040                           	line	#
  2041                           psect	cinit,class=CODE,delta=1,reloc=2
  2042                           global __pcinit
  2043  00085C                     __pcinit:
  2044                           global start_initialization
  2045  00085C                     start_initialization:
  2046                           
  2047                           psect	bssCOMRAM,class=COMRAM,space=1
  2048                           global __pbssCOMRAM
  2049  000001                     __pbssCOMRAM:
  2050                           	global	_ep0_in_decsriptor
  2051  000001                     _ep0_in_decsriptor:
  2052  000001                            ds      2
  2053                           	global	_ep0_in_handler
  2054  000003                     _ep0_in_handler:
  2055  000003                            ds      2
  2056                           	global	_ep0_in_total_bytes_sent
  2057  000005                     _ep0_in_total_bytes_sent:
  2058  000005                            ds      2
  2059                           	global	_ep0_in_total_bytes_sent_on_last_transfer
  2060  000007                     _ep0_in_total_bytes_sent_on_last_transfer:
  2061  000007                            ds      2
  2062                           	global	_ep0_in_total_bytes_to_send
  2063  000009                     _ep0_in_total_bytes_to_send:
  2064  000009                            ds      2
  2065                           	global	_ep0_out_handler
  2066  00000B                     _ep0_out_handler:
  2067  00000B                            ds      2
  2068                           	global	_ep2_receive_handler
  2069  00000D                     _ep2_receive_handler:
  2070  00000D                            ds      2
  2071                           	global	_ep0_bdstat
  2072  00000F                     _ep0_bdstat:
  2073  00000F                            ds      1
  2074                           	global	_ep0_dir
  2075  000010                     _ep0_dir:
  2076  000010                            ds      1
  2077                           	global	_ep0_last_data_bit
  2078  000011                     _ep0_last_data_bit:
  2079  000011                            ds      1
  2080                           	global	_ep0_temp_uaddr
  2081  000012                     _ep0_temp_uaddr:
  2082  000012                            ds      1
  2083                           	global	_ep2_code
  2084                           	global	_ep2_code
  2085  000013                     _ep2_code:
  2086  000013                            ds      1
  2087                           	global	_ep2_last_data_bit
  2088  000014                     _ep2_last_data_bit:
  2089  000014                            ds      1
  2090                           	global	_toggle
  2091                           	global	_toggle
  2092  000015                     _toggle:
  2093  000015                            ds      1
  2094                           	global	_total_writen
  2095  000016                     _total_writen:
  2096  000016                            ds      1
  2097                           	global	_usb_device_state
  2098  000017                     _usb_device_state:
  2099  000017                            ds      1
  2100                           psect	dataCOMRAM,class=COMRAM,space=1
  2101                           global __pdataCOMRAM
  2102  00001D                     __pdataCOMRAM:
  2103                           	file	"src/usb/ep1.c"
  2104                           	line	13
  2105                           	global	_ep1_last_data_bit
  2106  00001D                     _ep1_last_data_bit:
  2107  00001D                            ds      1
  2108                           psect	dataCOMRAM
  2109                           	file	"src/usb/ep1.c"
  2110                           	line	14
  2111                           	global	_ep1_sent
  2112  00001E                     _ep1_sent:
  2113  00001E                            ds      1
  2114                           psect	cinit
  2115                           ; Clear objects allocated to COMRAM (23 bytes)
  2116                           	global __pbssCOMRAM
  2117  00085C  EE00  F001         lfsr	0,__pbssCOMRAM
  2118  000860  0E17               movlw	23
  2119  000862                     clear_0:
  2120  000862  6AEE               clrf	postinc0,c
  2121  000864  06E8               decf	wreg
  2122  000866  E1FD               bnz	clear_0
  2123                           ; Initialize objects allocated to COMRAM (2 bytes)
  2124                           	global __pidataCOMRAM
  2125                           	; load TBLPTR registers with __pidataCOMRAM
  2126  000868  0E8E               	movlw	low (__pidataCOMRAM)
  2127  00086A  6EF6               	movwf	tblptrl
  2128  00086C  0E08               	movlw	high(__pidataCOMRAM)
  2129  00086E  6EF7               	movwf	tblptrh
  2130  000870  0E00               	movlw	low highword(__pidataCOMRAM)
  2131  000872  6EF8               	movwf	tblptru
  2132  000874  0009               	tblrd*+ ;fetch initializer
  2133  000876  CFF5 F01D          	movff	tablat, __pdataCOMRAM+0		
  2134  00087A  0009               	tblrd*+ ;fetch initializer
  2135  00087C  CFF5 F01E          	movff	tablat, __pdataCOMRAM+1		
  2136                           psect cinit,class=CODE,delta=1
  2137                           global end_of_initialization
  2138                           
  2139                           ;End of C runtime variable initialization code
  2140                           
  2141  000880                     end_of_initialization:
  2142                           	GLOBAL	__Lmediumconst
  2143  000880  0E00               	movlw	low highword(__Lmediumconst)
  2144  000882  6EF8               	movwf	tblptru
  2145  000884  0100               movlb 0
  2146  000886  EF45  F004         goto _main	;jump to C main() function
  2147                           psect	cstackCOMRAM,class=COMRAM,space=1
  2148                           global __pcstackCOMRAM
  2149  000018                     __pcstackCOMRAM:
  2150                           	global	?_main
  2151  000018                     ?_main:	; 2 bytes @ 0x0
  2152                           	global	main@argc
  2153  000018                     main@argc:	; 2 bytes @ 0x0
  2154  000018                     	ds   2
  2155                           	global	main@argv
  2156  00001A                     main@argv:	; 3 bytes @ 0x2
  2157  00001A                     	ds   3
  2158                           	global	??_main
  2159  00001D                     ??_main:	; 0 bytes @ 0x5
  2160                           ;!
  2161                           ;!Data Sizes:
  2162                           ;!    Strings     0
  2163                           ;!    Constant    90
  2164                           ;!    Data        2
  2165                           ;!    BSS         23
  2166                           ;!    Persistent  0
  2167                           ;!    Stack       0
  2168                           ;!
  2169                           ;!Auto Spaces:
  2170                           ;!    Space          Size  Autos    Used
  2171                           ;!    COMRAM           95      5      30
  2172                           ;!    BANK0           160      0       0
  2173                           ;!    BANK1           256      0       0
  2174                           ;!    BANK2           256      0       0
  2175                           ;!    BANK3           256      0       0
  2176                           ;!    BANK4h          236      0       0
  2177                           ;!    BANK4l            4      0       0
  2178                           ;!    BANK6           256      0       0
  2179                           ;!    BANK7           256      0       0
  2180                           
  2181                           ;!
  2182                           ;!Pointer List with Targets:
  2183                           ;!
  2184                           ;!    Absolute function$0	PTR unsigned char  size(2) Largest target is 2047
  2185                           ;!		 -> RAM(DATA[2047]), 
  2186                           ;!
  2187                           ;!    ep2_receive_handler$0	PTR unsigned char  size(2) Largest target is 2047
  2188                           ;!		 -> RAM(DATA[2047]), 
  2189                           ;!
  2190                           ;!    ep2_receive_handler	PTR FTN(PTR unsigned char ,int ,)void  size(2) Largest target 
                                 is 0
  2191                           ;!		 -> Absolute function(), 
  2192                           ;!
  2193                           ;!    ep0_in_decsriptor	PTR unsigned char  size(2) Largest target is 32
  2194                           ;!		 -> NULL(NULL[0]), string_desc_2(CODE[24]), string_desc_1(CODE[12]), string_desc_0(C
                                 ODE[4]), 
  2195                           ;!		 -> conf_desc_0(CODE[32]), dev_desc(CODE[18]), 
  2196                           ;!
  2197                           ;!    ep0_out_handler	PTR FTN()void  size(2) Largest target is 0
  2198                           ;!		 -> Absolute function(), ep0_out_handler_ack(), 
  2199                           ;!
  2200                           ;!    ep0_in_handler	PTR FTN()void  size(2) Largest target is 0
  2201                           ;!		 -> Absolute function(), ep0_in_handler_configure(), ep0_in_handler_set_address(), e
                                 p0_in_handler_send_descriptor(), 
  2202                           ;!		 -> ep0_in_handler_ack(), 
  2203                           ;!
  2204                           
  2205                           
  2206                           ;!
  2207                           ;!Critical Paths under _main in COMRAM
  2208                           ;!
  2209                           ;!    None.
  2210                           ;!
  2211                           ;!Critical Paths under _main in BANK0
  2212                           ;!
  2213                           ;!    None.
  2214                           ;!
  2215                           ;!Critical Paths under _main in BANK1
  2216                           ;!
  2217                           ;!    None.
  2218                           ;!
  2219                           ;!Critical Paths under _main in BANK2
  2220                           ;!
  2221                           ;!    None.
  2222                           ;!
  2223                           ;!Critical Paths under _main in BANK3
  2224                           ;!
  2225                           ;!    None.
  2226                           ;!
  2227                           ;!Critical Paths under _main in BANK4h
  2228                           ;!
  2229                           ;!    None.
  2230                           ;!
  2231                           ;!Critical Paths under _main in BANK4l
  2232                           ;!
  2233                           ;!    None.
  2234                           ;!
  2235                           ;!Critical Paths under _main in BANK6
  2236                           ;!
  2237                           ;!    None.
  2238                           ;!
  2239                           ;!Critical Paths under _main in BANK7
  2240                           ;!
  2241                           ;!    None.
  2242                           
  2243 ;;
  2244 ;;Main: autosize = 0, tempsize = 0, incstack = 0, save=0
  2245 ;;
  2246                           
  2247                           ;!
  2248                           ;!Call Graph Tables:
  2249                           ;!
  2250                           ;! ---------------------------------------------------------------------------------
  2251                           ;! (Depth) Function   	        Calls       Base Space   Used Autos Params    Refs
  2252                           ;! ---------------------------------------------------------------------------------
  2253                           ;! (0) _main                                                 5     0      5       0
  2254                           ;!                                              0 COMRAM     5     0      5
  2255                           ;! ---------------------------------------------------------------------------------
  2256                           ;! Estimated maximum stack depth 0
  2257                           ;! ---------------------------------------------------------------------------------
  2258                           ;!
  2259                           ;! Call Graph Graphs:
  2260                           ;!
  2261                           ;! _main (ROOT)
  2262                           ;!
  2263                           
  2264                           ;! Address spaces:
  2265                           
  2266                           ;!Name               Size   Autos  Total    Cost      Usage
  2267                           ;!BIGRAMl            3FF      0       0      24        0.0%
  2268                           ;!BIGRAMhh           200      0       0      21        0.0%
  2269                           ;!EEDATA             100      0       0       0        0.0%
  2270                           ;!BITBANK7           100      0       0      19        0.0%
  2271                           ;!BANK7              100      0       0      20        0.0%
  2272                           ;!BITBANK6           100      0       0      17        0.0%
  2273                           ;!BANK6              100      0       0      18        0.0%
  2274                           ;!BITBANK3           100      0       0      10        0.0%
  2275                           ;!BANK3              100      0       0      11        0.0%
  2276                           ;!BITBANK2           100      0       0       8        0.0%
  2277                           ;!BANK2              100      0       0       9        0.0%
  2278                           ;!BITBANK1           100      0       0       6        0.0%
  2279                           ;!BANK1              100      0       0       7        0.0%
  2280                           ;!BIGRAMhlh           EC      0       0      22        0.0%
  2281                           ;!BANK4h              EC      0       0      14        0.0%
  2282                           ;!BITBANK4h           EC      0       0      12        0.0%
  2283                           ;!BITBANK0            A0      0       0       4        0.0%
  2284                           ;!BANK0               A0      0       0       5        0.0%
  2285                           ;!BITCOMRAM           5F      0       0       0        0.0%
  2286                           ;!COMRAM              5F      5      1E       1       31.6%
  2287                           ;!BIGRAMhll            4      0       0      23        0.0%
  2288                           ;!BITBANK4l            4      0       0      13        0.0%
  2289                           ;!BANK4l               4      0       0      15        0.0%
  2290                           ;!BITSFR               0      0       0      40        0.0%
  2291                           ;!SFR                  0      0       0      40        0.0%
  2292                           ;!STACK                0      0       0       2        0.0%
  2293                           ;!NULL                 0      0       0       0        0.0%
  2294                           ;!ABS                  0      0      1E      16        0.0%
  2295                           ;!DATA                 0      0      1E       3        0.0%
  2296                           ;!CODE                 0      0       0       0        0.0%
  2297                           
  2298                           	global	_main
  2299                           
  2300 ;; *************** function _main *****************
  2301 ;; Defined at:
  2302 ;;		line 14 in file "src/main.c"
  2303 ;; Parameters:    Size  Location     Type
  2304 ;;  argc            2    0[COMRAM] int 
  2305 ;;  argv            3    2[COMRAM] PTR PTR unsigned char 
  2306 ;; Auto vars:     Size  Location     Type
  2307 ;;		None
  2308 ;; Return value:  Size  Location     Type
  2309 ;;                  2    0[COMRAM] int 
  2310 ;; Registers used:
  2311 ;;		None
  2312 ;; Tracked objects:
  2313 ;;		On entry : 0/0
  2314 ;;		On exit  : 0/0
  2315 ;;		Unchanged: 0/0
  2316 ;; Data sizes:     COMRAM   BANK0   BANK1   BANK2   BANK3  BANK4h  BANK4l   BANK6   BANK7
  2317 ;;      Params:         5       0       0       0       0       0       0       0       0
  2318 ;;      Locals:         0       0       0       0       0       0       0       0       0
  2319 ;;      Temps:          0       0       0       0       0       0       0       0       0
  2320 ;;      Totals:         5       0       0       0       0       0       0       0       0
  2321 ;;Total ram usage:        5 bytes
  2322 ;; This function calls:
  2323 ;;		Nothing
  2324 ;; This function is called by:
  2325 ;;		Startup code after reset
  2326 ;; This function uses a non-reentrant model
  2327 ;;
  2328                           psect	text0,class=CODE,space=0,reloc=2
  2329                           global __ptext0
  2330  00088A                     __ptext0:
  2331                           psect	text0
  2332                           	file	"src/main.c"
  2333                           	global	__size_of_main
  2334  0000                     	__size_of_main	equ	__end_of_main-_main
  2335                           	
  2336  00088A                     _main:
  2337                           	opt	stack 31
  2338                           	line	16
  2339                           	
  2340  00088A                     l929:
  2341                           	line	17
  2342                           ;main.c: 16: return (0);
  2343                           ;	Return value of _main is never used
  2344                           	
  2345  00088A                     l10:
  2346                           	global	start
  2347  00088A  EF00  F000         	goto	start
  2348                           	opt stack 0
  2349                           GLOBAL	__end_of_main
  2350  00088E                     	__end_of_main:
  2351                           	signat	_main,8314
  2352                           psect	smallconst
  2353  00085A  00                 	db 0	; dummy byte at the end
  2354                           	global	__smallconst
  2355                           	global	__mediumconst
  2356                           	GLOBAL	__activetblptr
  2357  0000                     __activetblptr	EQU	2
  2358                           	psect	intsave_regs,class=BIGRAM,space=1
  2359                           	PSECT	rparam,class=COMRAM,space=1
  2360                           	GLOBAL	__Lrparam
  2361                           	FNCONF	rparam,??,?
  2362                           GLOBAL	__Lparam, __Hparam
  2363                           GLOBAL	__Lrparam, __Hrparam
  2364  0000                     __Lparam	EQU	__Lrparam
  2365  0000                     __Hparam	EQU	__Hrparam


Data Sizes:
    Strings     0
    Constant    90
    Data        2
    BSS         23
    Persistent  0
    Stack       0

Auto Spaces:
    Space          Size  Autos    Used
    COMRAM           95      5      30
    BANK0           160      0       0
    BANK1           256      0       0
    BANK2           256      0       0
    BANK3           256      0       0
    BANK4h          236      0       0
    BANK4l            4      0       0
    BANK6           256      0       0
    BANK7           256      0       0

Pointer List with Targets:

    Absolute function$0	PTR unsigned char  size(2) Largest target is 2047
		 -> RAM(DATA[2047]), 

    ep2_receive_handler$0	PTR unsigned char  size(2) Largest target is 2047
		 -> RAM(DATA[2047]), 

    ep2_receive_handler	PTR FTN(PTR unsigned char ,int ,)void  size(2) Largest target is 0
		 -> Absolute function(), 

    ep0_in_decsriptor	PTR unsigned char  size(2) Largest target is 32
		 -> NULL(NULL[0]), string_desc_2(CODE[24]), string_desc_1(CODE[12]), string_desc_0(CODE[4]), 
		 -> conf_desc_0(CODE[32]), dev_desc(CODE[18]), 

    ep0_out_handler	PTR FTN()void  size(2) Largest target is 0
		 -> Absolute function(), ep0_out_handler_ack(), 

    ep0_in_handler	PTR FTN()void  size(2) Largest target is 0
		 -> Absolute function(), ep0_in_handler_configure(), ep0_in_handler_set_address(), ep0_in_handler_send_descriptor(), 
		 -> ep0_in_handler_ack(), 


Critical Paths under _main in COMRAM

    None.

Critical Paths under _main in BANK0

    None.

Critical Paths under _main in BANK1

    None.

Critical Paths under _main in BANK2

    None.

Critical Paths under _main in BANK3

    None.

Critical Paths under _main in BANK4h

    None.

Critical Paths under _main in BANK4l

    None.

Critical Paths under _main in BANK6

    None.

Critical Paths under _main in BANK7

    None.

Call Graph Tables:

 ---------------------------------------------------------------------------------
 (Depth) Function   	        Calls       Base Space   Used Autos Params    Refs
 ---------------------------------------------------------------------------------
 (0) _main                                                 5     0      5       0
                                              0 COMRAM     5     0      5
 ---------------------------------------------------------------------------------
 Estimated maximum stack depth 0
 ---------------------------------------------------------------------------------

 Call Graph Graphs:

 _main (ROOT)

 Address spaces:
Name               Size   Autos  Total    Cost      Usage
BIGRAMl            3FF      0       0      24        0.0%
BIGRAMhh           200      0       0      21        0.0%
EEDATA             100      0       0       0        0.0%
BITBANK7           100      0       0      19        0.0%
BANK7              100      0       0      20        0.0%
BITBANK6           100      0       0      17        0.0%
BANK6              100      0       0      18        0.0%
BITBANK3           100      0       0      10        0.0%
BANK3              100      0       0      11        0.0%
BITBANK2           100      0       0       8        0.0%
BANK2              100      0       0       9        0.0%
BITBANK1           100      0       0       6        0.0%
BANK1              100      0       0       7        0.0%
BIGRAMhlh           EC      0       0      22        0.0%
BANK4h              EC      0       0      14        0.0%
BITBANK4h           EC      0       0      12        0.0%
BITBANK0            A0      0       0       4        0.0%
BANK0               A0      0       0       5        0.0%
BITCOMRAM           5F      0       0       0        0.0%
COMRAM              5F      5      1E       1       31.6%
BIGRAMhll            4      0       0      23        0.0%
BITBANK4l            4      0       0      13        0.0%
BANK4l               4      0       0      15        0.0%
BITSFR               0      0       0      40        0.0%
SFR                  0      0       0      40        0.0%
STACK                0      0       0       2        0.0%
NULL                 0      0       0       0        0.0%
ABS                  0      0      1E      16        0.0%
DATA                 0      0      1E       3        0.0%
CODE                 0      0       0       0        0.0%


HI-TECH Software PICC-18 Macro Assembler V9.80 build 11162 
Symbol Table                                                                                   Sun Aug 25 00:21:49 2013

                                      l10 088A                                       l929 088A  
                                     _UIE 000F69                                       _UIR 000F68  
                                     wreg 000FE8                                      _UCFG 000F6F  
                                    _UEP0 000F70                                      _UEP1 000F71  
                                    _UEP2 000F72                                      _UCON 000F6D  
                                    _main 088A                                      start 0000  
                            _total_writen 0016                                     ?_main 0018  
                          _ep0_temp_uaddr 0012                                     _UADDR 000F6E  
                                   _USTAT 000F6C                          _usb_device_state 0017  
                                   tablat 000FF5                            _ep0_out_buffer 000500  
                            __end_of_main 088E                _ep0_in_handler_set_address 000000  
                       _ep0_last_data_bit 0011                                    ??_main 001D  
                           __activetblptr 000002                                    _ep1_bd 00040C  
                                  _ep2_bd 000410                                    clear_0 0862  
                                  _toggle 0015                              __pdataCOMRAM 001D  
                         _ep0_out_handler 000B                              __mediumconst 0000  
                                  tblptrh 000FF7                                    tblptrl 000FF6  
                                  tblptru 000FF8                                _ep0_bdstat 000F  
                              __accesstop 0060                                _ep1_buffer 000580  
                              _ep2_buffer 0005C0                                _ep0_out_bd 000400  
                          __pcstackCOMRAM 0018                   _ep0_in_total_bytes_sent 0005  
                           _string_desc_0 0856                             _string_desc_1 084A  
                           _string_desc_2 0820                                   _UIRbits 000F68  
                                 __Hparam 0000                                   __Lparam 0000  
                                 _ep0_dir 0010                              __psmallconst 0800  
                                 __pcinit 085C                                   __ramtop 0800  
                       _ep1_last_data_bit 001D                                   __ptext0 088A  
                    end_of_initialization 0880                             __Lmediumconst 0000  
                                 postinc0 000FEE  _ep0_in_total_bytes_sent_on_last_transfer 0007  
                           __pidataCOMRAM 088E                       start_initialization 085C  
                               _ep0_in_bd 000404                               __pbssCOMRAM 0001  
                     _ep0_out_handler_ack 000000                       _ep2_receive_handler 000D  
                       _ep2_last_data_bit 0014                               __smallconst 0800  
                             _conf_desc_0 0800                                  _UCONbits 000F6D  
                                __Hrparam 0000                                  __Lrparam 0000  
                                _ep2_code 0013                                  _ep1_sent 001E  
                                _dev_desc 0838                             __size_of_main 0004  
          _ep0_in_handler_send_descriptor 000000                                  main@argc 0018  
                                main@argv 001A                  _ep0_in_handler_configure 000000  
                      _ep0_in_handler_ack 000000                         _ep0_in_decsriptor 0001  
              _ep0_in_total_bytes_to_send 0009                            _ep0_in_handler 0003  
                           _ep0_in_buffer 000540  
